GAS LISTING /tmp/ccvVVb5v.s 			page 1


   1              		.file	"_new.cpp"
   2              		.option pic
   3              		.option norelax
   4              		.text
   5              	.Ltext0:
   6              		.align	2
   7              		.globl	_Znwm
   9              	_Znwm:
  10              	.LFB0:
  11              		.file 1 "src/_new.cpp"
   1:src/_new.cpp  **** //
   2:src/_new.cpp  **** // Created by os on 6/30/22.
   3:src/_new.cpp  **** //
   4:src/_new.cpp  **** #include "../h/syscall_c.h"
   5:src/_new.cpp  **** //#include "../lib/mem.h"
   6:src/_new.cpp  **** 
   7:src/_new.cpp  **** void* operator new (size_t size){return mem_alloc(size);}
  12              		.loc 1 7 33
  13              		.cfi_startproc
  14              	.LVL0:
  15 0000 130101FF 		addi	sp,sp,-16
  16              		.cfi_def_cfa_offset 16
  17 0004 23341100 		sd	ra,8(sp)
  18 0008 23308100 		sd	s0,0(sp)
  19              		.cfi_offset 1, -8
  20              		.cfi_offset 8, -16
  21 000c 13040101 		addi	s0,sp,16
  22              		.cfi_def_cfa 8, 0
  23              		.loc 1 7 34
  24              		.loc 1 7 50 is_stmt 0
  25 0010 97000000 		call	_Z9mem_allocm@plt
  25      E7800000 
  26              	.LVL1:
  27              		.loc 1 7 57
  28 0018 83308100 		ld	ra,8(sp)
  29              		.cfi_restore 1
  30 001c 03340100 		ld	s0,0(sp)
  31              		.cfi_restore 8
  32              		.cfi_def_cfa 2, 16
  33 0020 13010101 		addi	sp,sp,16
  34              		.cfi_def_cfa_offset 0
  35 0024 67800000 		jr	ra
  36              		.cfi_endproc
  37              	.LFE0:
  39              		.align	2
  40              		.globl	_Znam
  42              	_Znam:
  43              	.LFB1:
   8:src/_new.cpp  **** void* operator new [](size_t size){return mem_alloc(size);}
  44              		.loc 1 8 35 is_stmt 1
  45              		.cfi_startproc
  46              	.LVL2:
  47 0028 130101FF 		addi	sp,sp,-16
  48              		.cfi_def_cfa_offset 16
  49 002c 23341100 		sd	ra,8(sp)
  50 0030 23308100 		sd	s0,0(sp)
  51              		.cfi_offset 1, -8
GAS LISTING /tmp/ccvVVb5v.s 			page 2


  52              		.cfi_offset 8, -16
  53 0034 13040101 		addi	s0,sp,16
  54              		.cfi_def_cfa 8, 0
  55              		.loc 1 8 36
  56              		.loc 1 8 52 is_stmt 0
  57 0038 97000000 		call	_Z9mem_allocm@plt
  57      E7800000 
  58              	.LVL3:
  59              		.loc 1 8 59
  60 0040 83308100 		ld	ra,8(sp)
  61              		.cfi_restore 1
  62 0044 03340100 		ld	s0,0(sp)
  63              		.cfi_restore 8
  64              		.cfi_def_cfa 2, 16
  65 0048 13010101 		addi	sp,sp,16
  66              		.cfi_def_cfa_offset 0
  67 004c 67800000 		jr	ra
  68              		.cfi_endproc
  69              	.LFE1:
  71              		.align	2
  72              		.globl	_ZdlPv
  74              	_ZdlPv:
  75              	.LFB2:
   9:src/_new.cpp  **** void operator delete (void* adr) noexcept { mem_free(adr);}
  76              		.loc 1 9 43 is_stmt 1
  77              		.cfi_startproc
  78              		.cfi_personality 0x9b,DW.ref.__gxx_personality_v0
  79              		.cfi_lsda 0x1b,.LLSDA2
  80              	.LVL4:
  81 0050 130101FF 		addi	sp,sp,-16
  82              		.cfi_def_cfa_offset 16
  83 0054 23341100 		sd	ra,8(sp)
  84 0058 23308100 		sd	s0,0(sp)
  85              		.cfi_offset 1, -8
  86              		.cfi_offset 8, -16
  87 005c 13040101 		addi	s0,sp,16
  88              		.cfi_def_cfa 8, 0
  89              		.loc 1 9 45
  90              		.loc 1 9 53 is_stmt 0
  91 0060 97000000 		call	_Z8mem_freePv@plt
  91      E7800000 
  92              	.LVL5:
  93              		.loc 1 9 59
  94 0068 83308100 		ld	ra,8(sp)
  95              		.cfi_restore 1
  96 006c 03340100 		ld	s0,0(sp)
  97              		.cfi_restore 8
  98              		.cfi_def_cfa 2, 16
  99 0070 13010101 		addi	sp,sp,16
 100              		.cfi_def_cfa_offset 0
 101 0074 67800000 		jr	ra
 102              		.cfi_endproc
 103              	.LFE2:
 104              		.globl	__gxx_personality_v0
 105              		.section	.gcc_except_table,"a",@progbits
 106              	.LLSDA2:
 107 0000 FF       		.byte	0xff
GAS LISTING /tmp/ccvVVb5v.s 			page 3


 108 0001 FF       		.byte	0xff
 109 0002 03       		.byte	0x3
 110 0003 00       		.byte	0
 111              		.text
 113              		.align	2
 114              		.globl	_ZdaPv
 116              	_ZdaPv:
 117              	.LFB3:
  10:src/_new.cpp  **** void operator delete [](void* adr) noexcept { mem_free(adr);}
 118              		.loc 1 10 45 is_stmt 1
 119              		.cfi_startproc
 120              		.cfi_personality 0x9b,DW.ref.__gxx_personality_v0
 121              		.cfi_lsda 0x1b,.LLSDA3
 122              	.LVL6:
 123 0078 130101FF 		addi	sp,sp,-16
 124              		.cfi_def_cfa_offset 16
 125 007c 23341100 		sd	ra,8(sp)
 126 0080 23308100 		sd	s0,0(sp)
 127              		.cfi_offset 1, -8
 128              		.cfi_offset 8, -16
 129 0084 13040101 		addi	s0,sp,16
 130              		.cfi_def_cfa 8, 0
 131              		.loc 1 10 47
 132              		.loc 1 10 55 is_stmt 0
 133 0088 97000000 		call	_Z8mem_freePv@plt
 133      E7800000 
 134              	.LVL7:
 135              		.loc 1 10 61
 136 0090 83308100 		ld	ra,8(sp)
 137              		.cfi_restore 1
 138 0094 03340100 		ld	s0,0(sp)
 139              		.cfi_restore 8
 140              		.cfi_def_cfa 2, 16
 141 0098 13010101 		addi	sp,sp,16
 142              		.cfi_def_cfa_offset 0
 143 009c 67800000 		jr	ra
 144              		.cfi_endproc
 145              	.LFE3:
 146              		.section	.gcc_except_table
 147              	.LLSDA3:
 148 0004 FF       		.byte	0xff
 149 0005 FF       		.byte	0xff
 150 0006 03       		.byte	0x3
 151 0007 00       		.byte	0
 152              		.text
 154              	.Letext0:
 155              		.file 2 "src/../h/../lib/hw.h"
 156              		.file 3 "src/../h/syscall_c.h"
 855              		.align	3
 858              	DW.ref.__gxx_personality_v0:
 859 0000 00000000 		.dword	__gxx_personality_v0
 859      00000000 
 860              		.ident	"GCC: (Ubuntu 9.4.0-1ubuntu1~20.04) 9.4.0"
 861              		.section	.note.GNU-stack,"",@progbits
GAS LISTING /tmp/ccvVVb5v.s 			page 4


DEFINED SYMBOLS
                            *ABS*:0000000000000000 _new.cpp
     /tmp/ccvVVb5v.s:9      .text:0000000000000000 _Znwm
     /tmp/ccvVVb5v.s:13     .text:0000000000000000 .L0 
     /tmp/ccvVVb5v.s:15     .text:0000000000000000 .L0 
     /tmp/ccvVVb5v.s:16     .text:0000000000000004 .L0 
     /tmp/ccvVVb5v.s:19     .text:000000000000000c .L0 
     /tmp/ccvVVb5v.s:20     .text:000000000000000c .L0 
     /tmp/ccvVVb5v.s:22     .text:0000000000000010 .L0 
     /tmp/ccvVVb5v.s:24     .text:0000000000000010 .L0 
     /tmp/ccvVVb5v.s:25     .text:0000000000000010 .L0 
     /tmp/ccvVVb5v.s:28     .text:0000000000000018 .L0 
     /tmp/ccvVVb5v.s:29     .text:000000000000001c .L0 
     /tmp/ccvVVb5v.s:31     .text:0000000000000020 .L0 
     /tmp/ccvVVb5v.s:32     .text:0000000000000020 .L0 
     /tmp/ccvVVb5v.s:34     .text:0000000000000024 .L0 
     /tmp/ccvVVb5v.s:36     .text:0000000000000028 .L0 
     /tmp/ccvVVb5v.s:42     .text:0000000000000028 _Znam
     /tmp/ccvVVb5v.s:45     .text:0000000000000028 .L0 
     /tmp/ccvVVb5v.s:47     .text:0000000000000028 .L0 
     /tmp/ccvVVb5v.s:48     .text:000000000000002c .L0 
     /tmp/ccvVVb5v.s:51     .text:0000000000000034 .L0 
     /tmp/ccvVVb5v.s:52     .text:0000000000000034 .L0 
     /tmp/ccvVVb5v.s:54     .text:0000000000000038 .L0 
     /tmp/ccvVVb5v.s:56     .text:0000000000000038 .L0 
     /tmp/ccvVVb5v.s:57     .text:0000000000000038 .L0 
     /tmp/ccvVVb5v.s:60     .text:0000000000000040 .L0 
     /tmp/ccvVVb5v.s:61     .text:0000000000000044 .L0 
     /tmp/ccvVVb5v.s:63     .text:0000000000000048 .L0 
     /tmp/ccvVVb5v.s:64     .text:0000000000000048 .L0 
     /tmp/ccvVVb5v.s:66     .text:000000000000004c .L0 
     /tmp/ccvVVb5v.s:68     .text:0000000000000050 .L0 
     /tmp/ccvVVb5v.s:74     .text:0000000000000050 _ZdlPv
     /tmp/ccvVVb5v.s:77     .text:0000000000000050 .L0 
     /tmp/ccvVVb5v.s:858    .data.rel.local.DW.ref.__gxx_personality_v0:0000000000000000 DW.ref.__gxx_personality_v0
     /tmp/ccvVVb5v.s:81     .text:0000000000000050 .L0 
     /tmp/ccvVVb5v.s:82     .text:0000000000000054 .L0 
     /tmp/ccvVVb5v.s:85     .text:000000000000005c .L0 
     /tmp/ccvVVb5v.s:86     .text:000000000000005c .L0 
     /tmp/ccvVVb5v.s:88     .text:0000000000000060 .L0 
     /tmp/ccvVVb5v.s:90     .text:0000000000000060 .L0 
     /tmp/ccvVVb5v.s:91     .text:0000000000000060 .L0 
     /tmp/ccvVVb5v.s:94     .text:0000000000000068 .L0 
     /tmp/ccvVVb5v.s:95     .text:000000000000006c .L0 
     /tmp/ccvVVb5v.s:97     .text:0000000000000070 .L0 
     /tmp/ccvVVb5v.s:98     .text:0000000000000070 .L0 
     /tmp/ccvVVb5v.s:100    .text:0000000000000074 .L0 
     /tmp/ccvVVb5v.s:102    .text:0000000000000078 .L0 
     /tmp/ccvVVb5v.s:116    .text:0000000000000078 _ZdaPv
     /tmp/ccvVVb5v.s:119    .text:0000000000000078 .L0 
     /tmp/ccvVVb5v.s:123    .text:0000000000000078 .L0 
     /tmp/ccvVVb5v.s:124    .text:000000000000007c .L0 
     /tmp/ccvVVb5v.s:127    .text:0000000000000084 .L0 
     /tmp/ccvVVb5v.s:128    .text:0000000000000084 .L0 
     /tmp/ccvVVb5v.s:130    .text:0000000000000088 .L0 
     /tmp/ccvVVb5v.s:132    .text:0000000000000088 .L0 
     /tmp/ccvVVb5v.s:133    .text:0000000000000088 .L0 
GAS LISTING /tmp/ccvVVb5v.s 			page 5


     /tmp/ccvVVb5v.s:136    .text:0000000000000090 .L0 
     /tmp/ccvVVb5v.s:137    .text:0000000000000094 .L0 
     /tmp/ccvVVb5v.s:139    .text:0000000000000098 .L0 
     /tmp/ccvVVb5v.s:140    .text:0000000000000098 .L0 
     /tmp/ccvVVb5v.s:142    .text:000000000000009c .L0 
     /tmp/ccvVVb5v.s:144    .text:00000000000000a0 .L0 
     /tmp/ccvVVb5v.s:157    .text:00000000000000a0 .L0 
     /tmp/ccvVVb5v.s:430    .debug_abbrev:0000000000000000 .Ldebug_abbrev0
     /tmp/ccvVVb5v.s:834    .debug_str:0000000000000169 .LASF30
     /tmp/ccvVVb5v.s:850    .debug_str:0000000000000278 .LASF31
     /tmp/ccvVVb5v.s:806    .debug_str:0000000000000084 .LASF32
     /tmp/ccvVVb5v.s:5      .text:0000000000000000 .Ltext0
     /tmp/ccvVVb5v.s:154    .text:00000000000000a0 .Letext0
     /tmp/ccvVVb5v.s:784    .debug_line:0000000000000000 .Ldebug_line0
     /tmp/ccvVVb5v.s:788    .debug_str:0000000000000010 .LASF0
     /tmp/ccvVVb5v.s:832    .debug_str:0000000000000156 .LASF1
     /tmp/ccvVVb5v.s:812    .debug_str:00000000000000be .LASF2
     /tmp/ccvVVb5v.s:804    .debug_str:000000000000007d .LASF4
     /tmp/ccvVVb5v.s:800    .debug_str:0000000000000058 .LASF3
     /tmp/ccvVVb5v.s:794    .debug_str:000000000000003a .LASF5
     /tmp/ccvVVb5v.s:802    .debug_str:000000000000006a .LASF6
     /tmp/ccvVVb5v.s:830    .debug_str:0000000000000143 .LASF7
     /tmp/ccvVVb5v.s:844    .debug_str:000000000000024e .LASF8
     /tmp/ccvVVb5v.s:790    .debug_str:000000000000001d .LASF9
     /tmp/ccvVVb5v.s:792    .debug_str:000000000000002b .LASF10
     /tmp/ccvVVb5v.s:836    .debug_str:000000000000022d .LASF11
     /tmp/ccvVVb5v.s:796    .debug_str:0000000000000041 .LASF12
     /tmp/ccvVVb5v.s:848    .debug_str:0000000000000268 .LASF13
     /tmp/ccvVVb5v.s:810    .debug_str:00000000000000b2 .LASF14
     /tmp/ccvVVb5v.s:824    .debug_str:0000000000000119 .LASF15
     /tmp/ccvVVb5v.s:818    .debug_str:00000000000000e8 .LASF16
     /tmp/ccvVVb5v.s:816    .debug_str:00000000000000d5 .LASF17
     /tmp/ccvVVb5v.s:838    .debug_str:000000000000023c .LASF19
     /tmp/ccvVVb5v.s:117    .text:0000000000000078 .LFB3
     /tmp/ccvVVb5v.s:145    .text:00000000000000a0 .LFE3
     /tmp/ccvVVb5v.s:715    .debug_loc:0000000000000000 .LLST3
     /tmp/ccvVVb5v.s:134    .text:0000000000000090 .LVL7
     /tmp/ccvVVb5v.s:808    .debug_str:00000000000000a2 .LASF18
     /tmp/ccvVVb5v.s:798    .debug_str:0000000000000051 .LASF20
     /tmp/ccvVVb5v.s:75     .text:0000000000000050 .LFB2
     /tmp/ccvVVb5v.s:103    .text:0000000000000078 .LFE2
     /tmp/ccvVVb5v.s:729    .debug_loc:0000000000000039 .LLST2
     /tmp/ccvVVb5v.s:92     .text:0000000000000068 .LVL5
     /tmp/ccvVVb5v.s:786    .debug_str:0000000000000000 .LASF22
     /tmp/ccvVVb5v.s:826    .debug_str:000000000000012f .LASF24
     /tmp/ccvVVb5v.s:43     .text:0000000000000028 .LFB1
     /tmp/ccvVVb5v.s:69     .text:0000000000000050 .LFE1
     /tmp/ccvVVb5v.s:840    .debug_str:0000000000000243 .LASF21
     /tmp/ccvVVb5v.s:743    .debug_loc:0000000000000072 .LLST1
     /tmp/ccvVVb5v.s:58     .text:0000000000000040 .LVL3
     /tmp/ccvVVb5v.s:820    .debug_str:00000000000000fe .LASF23
     /tmp/ccvVVb5v.s:842    .debug_str:0000000000000248 .LASF25
     /tmp/ccvVVb5v.s:10     .text:0000000000000000 .LFB0
     /tmp/ccvVVb5v.s:37     .text:0000000000000028 .LFE0
     /tmp/ccvVVb5v.s:757    .debug_loc:00000000000000ab .LLST0
     /tmp/ccvVVb5v.s:26     .text:0000000000000018 .LVL1
     /tmp/ccvVVb5v.s:822    .debug_str:000000000000010b .LASF26
GAS LISTING /tmp/ccvVVb5v.s 			page 6


     /tmp/ccvVVb5v.s:814    .debug_str:00000000000000cc .LASF28
     /tmp/ccvVVb5v.s:828    .debug_str:0000000000000135 .LASF27
     /tmp/ccvVVb5v.s:846    .debug_str:000000000000025e .LASF29
     /tmp/ccvVVb5v.s:122    .text:0000000000000078 .LVL6
     /tmp/ccvVVb5v.s:80     .text:0000000000000050 .LVL4
     /tmp/ccvVVb5v.s:46     .text:0000000000000028 .LVL2
     /tmp/ccvVVb5v.s:14     .text:0000000000000000 .LVL0
     /tmp/ccvVVb5v.s:158    .debug_info:0000000000000000 .Ldebug_info0
     /tmp/ccvVVb5v.s:106    .gcc_except_table:0000000000000000 .LLSDA2
     /tmp/ccvVVb5v.s:147    .gcc_except_table:0000000000000004 .LLSDA3

UNDEFINED SYMBOLS
_Z9mem_allocm
_Z8mem_freePv
__gxx_personality_v0
