GAS LISTING /tmp/ccxLz2gS.s 			page 1


   1              		.file	"main.cpp"
   2              		.option pic
   3              		.option norelax
   4              		.text
   5              	.Ltext0:
   6              		.section	.rodata.str1.8,"aMS",@progbits,1
   7              		.align	3
   8              	.LC0:
   9 0000 75736572 		.string	"userMain started!\n"
   9      4D61696E 
   9      20737461 
   9      72746564 
   9      210A00
  10 0013 00000000 		.align	3
  10      00
  11              	.LC1:
  12 0018 75736572 		.string	"userMain finished!\n"
  12      4D61696E 
  12      2066696E 
  12      69736865 
  12      64210A00 
  13              		.text
  14              		.align	2
  15              		.globl	_Z11userWrapperPv
  17              	_Z11userWrapperPv:
  18              	.LFB63:
  19              		.file 1 "src/main.cpp"
   1:src/main.cpp  **** #include "../lib/hw.h"
   2:src/main.cpp  **** #include "../lib/console.h"
   3:src/main.cpp  **** #include "../h/MemoryAllocator.hpp"
   4:src/main.cpp  **** #include "../h/Riscv.hpp"
   5:src/main.cpp  **** #include "../h/syscall_c.h"
   6:src/main.cpp  **** #include "../h/syscall_cpp.hpp"
   7:src/main.cpp  **** #include "../h/PCB.hpp"
   8:src/main.cpp  **** 
   9:src/main.cpp  **** #include "../test/printing.hpp"
  10:src/main.cpp  **** #include "../h/userMain.hpp"
  11:src/main.cpp  **** 
  12:src/main.cpp  **** // \n
  13:src/main.cpp  **** 
  14:src/main.cpp  **** void userWrapper(void *sem) //mora wrapper posto je userMain bez argumenata
  15:src/main.cpp  **** {
  20              		.loc 1 15 1
  21              		.cfi_startproc
  22              	.LVL0:
  23 0000 130101FE 		addi	sp,sp,-32
  24              		.cfi_def_cfa_offset 32
  25 0004 233C1100 		sd	ra,24(sp)
  26 0008 23388100 		sd	s0,16(sp)
  27 000c 23349100 		sd	s1,8(sp)
  28              		.cfi_offset 1, -8
  29              		.cfi_offset 8, -16
  30              		.cfi_offset 9, -24
  31 0010 13040102 		addi	s0,sp,32
  32              		.cfi_def_cfa 8, 0
  33 0014 93040500 		mv	s1,a0
  16:src/main.cpp  ****     printString("userMain started!\n");
GAS LISTING /tmp/ccxLz2gS.s 			page 2


  34              		.loc 1 16 5
  35              		.loc 1 16 16 is_stmt 0
  36 0018 17050000 		lla	a0,.LC0
  36      13050500 
  37              	.LVL1:
  38 0020 97000000 		call	_Z11printStringPKc@plt
  38      E7800000 
  39              	.LVL2:
  17:src/main.cpp  ****     userMain();
  40              		.loc 1 17 5 is_stmt 1
  41              		.loc 1 17 13 is_stmt 0
  42 0028 97000000 		call	_Z8userMainv@plt
  42      E7800000 
  43              	.LVL3:
  18:src/main.cpp  ****     printString("userMain finished!\n");
  44              		.loc 1 18 5 is_stmt 1
  45              		.loc 1 18 16 is_stmt 0
  46 0030 17050000 		lla	a0,.LC1
  46      13050500 
  47 0038 97000000 		call	_Z11printStringPKc@plt
  47      E7800000 
  48              	.LVL4:
  19:src/main.cpp  ****     sem_signal((sem_t)sem);
  49              		.loc 1 19 5 is_stmt 1
  50              		.loc 1 19 15 is_stmt 0
  51 0040 13850400 		mv	a0,s1
  52 0044 97000000 		call	_Z10sem_signalP14SemDescription@plt
  52      E7800000 
  53              	.LVL5:
  20:src/main.cpp  **** }
  54              		.loc 1 20 1
  55 004c 83308101 		ld	ra,24(sp)
  56              		.cfi_restore 1
  57 0050 03340101 		ld	s0,16(sp)
  58              		.cfi_restore 8
  59              		.cfi_def_cfa 2, 32
  60 0054 83348100 		ld	s1,8(sp)
  61              		.cfi_restore 9
  62              	.LVL6:
  63 0058 13010102 		addi	sp,sp,32
  64              		.cfi_def_cfa_offset 0
  65 005c 67800000 		jr	ra
  66              		.cfi_endproc
  67              	.LFE63:
  69              		.section	.rodata.str1.8
  70 002c 00000000 		.align	3
  71              	.LC2:
  72 0030 4D61696E 		.string	"Main started!\n"
  72      20737461 
  72      72746564 
  72      210A00
  73 003f 00       		.align	3
  74              	.LC3:
  75 0040 4D61696E 		.string	"Main finished!\n"
  75      2066696E 
  75      69736865 
  75      64210A00 
GAS LISTING /tmp/ccxLz2gS.s 			page 3


  76              		.text
  77              		.align	2
  78              		.globl	main
  80              	main:
  81              	.LFB64:
  21:src/main.cpp  **** 
  22:src/main.cpp  **** 
  23:src/main.cpp  **** int main(){
  82              		.loc 1 23 11 is_stmt 1
  83              		.cfi_startproc
  84 0060 130101FD 		addi	sp,sp,-48
  85              		.cfi_def_cfa_offset 48
  86 0064 23341102 		sd	ra,40(sp)
  87 0068 23308102 		sd	s0,32(sp)
  88 006c 233C9100 		sd	s1,24(sp)
  89 0070 23382101 		sd	s2,16(sp)
  90              		.cfi_offset 1, -8
  91              		.cfi_offset 8, -16
  92              		.cfi_offset 9, -24
  93              		.cfi_offset 18, -32
  94 0074 13040103 		addi	s0,sp,48
  95              		.cfi_def_cfa 8, 0
  24:src/main.cpp  **** 
  25:src/main.cpp  ****     PCB* kernel = PCB::kernelThreadMaker();
  96              		.loc 1 25 5
  97              		.loc 1 25 41 is_stmt 0
  98 0078 97000000 		call	_ZN3PCB17kernelThreadMakerEv@plt
  98      E7800000 
  99              	.LVL7:
 100 0080 93040500 		mv	s1,a0
 101              	.LVL8:
  26:src/main.cpp  **** 
  27:src/main.cpp  ****     Riscv::w_stvec((uint64)&Riscv::trap);
 102              		.loc 1 27 5 is_stmt 1
 103              		.loc 1 27 19 is_stmt 0
 104 0084 97070000 		la	a5,_ZN5Riscv4trapEv
 104      83B70700 
 105              	.LVL9:
 106              	.LBB18:
 107              	.LBB19:
 108              		.file 2 "src/../h/Riscv.hpp"
   1:src/../h/Riscv.hpp **** //
   2:src/../h/Riscv.hpp **** // Created by os on 5/19/22.
   3:src/../h/Riscv.hpp **** //
   4:src/../h/Riscv.hpp **** 
   5:src/../h/Riscv.hpp **** #ifndef PROJECT_BASE_RISCV_HPP
   6:src/../h/Riscv.hpp **** #define PROJECT_BASE_RISCV_HPP
   7:src/../h/Riscv.hpp **** 
   8:src/../h/Riscv.hpp **** 
   9:src/../h/Riscv.hpp **** #include "../lib/hw.h"
  10:src/../h/Riscv.hpp **** #include "MemoryAllocator.hpp"
  11:src/../h/Riscv.hpp **** #include "PCB.hpp"
  12:src/../h/Riscv.hpp **** #include "SemDescription.hpp"
  13:src/../h/Riscv.hpp **** 
  14:src/../h/Riscv.hpp **** 
  15:src/../h/Riscv.hpp **** class Riscv{
  16:src/../h/Riscv.hpp **** public:
GAS LISTING /tmp/ccxLz2gS.s 			page 4


  17:src/../h/Riscv.hpp ****     static void trap();
  18:src/../h/Riscv.hpp **** 
  19:src/../h/Riscv.hpp ****     static void popSppSpie();
  20:src/../h/Riscv.hpp **** 
  21:src/../h/Riscv.hpp ****     static uint64 previousPrivilege(uint64 sstatus);
  22:src/../h/Riscv.hpp **** 
  23:src/../h/Riscv.hpp ****     static void prevPrivilege();
  24:src/../h/Riscv.hpp **** 
  25:src/../h/Riscv.hpp ****     static void  handleTrap();
  26:src/../h/Riscv.hpp **** 
  27:src/../h/Riscv.hpp ****     static uint64 r_scause();
  28:src/../h/Riscv.hpp **** 
  29:src/../h/Riscv.hpp ****     static void w_scause(uint64 scause);
  30:src/../h/Riscv.hpp **** 
  31:src/../h/Riscv.hpp ****     static uint64 r_sepc();
  32:src/../h/Riscv.hpp **** 
  33:src/../h/Riscv.hpp ****     static void w_sepc(uint64 sepc);
  34:src/../h/Riscv.hpp **** 
  35:src/../h/Riscv.hpp ****     static uint64 r_stvec();
  36:src/../h/Riscv.hpp **** 
  37:src/../h/Riscv.hpp ****     static void w_stvec(uint64 stvec);
  38:src/../h/Riscv.hpp **** 
  39:src/../h/Riscv.hpp ****     static uint64 r_stval();
  40:src/../h/Riscv.hpp **** 
  41:src/../h/Riscv.hpp ****     static void w_stval(uint64 stval);
  42:src/../h/Riscv.hpp **** 
  43:src/../h/Riscv.hpp ****     enum BitMaskSIP{
  44:src/../h/Riscv.hpp ****         SIP_SSIP = (1 << 1),
  45:src/../h/Riscv.hpp ****         SIP_STIP = (1 << 5),
  46:src/../h/Riscv.hpp ****         SIP_SEIP = (1 << 9)
  47:src/../h/Riscv.hpp ****     };
  48:src/../h/Riscv.hpp **** 
  49:src/../h/Riscv.hpp ****     static void ms_sip(uint64 mask); //mask
  50:src/../h/Riscv.hpp ****     static void mc_sip(uint64 mask); //clear
  51:src/../h/Riscv.hpp **** 
  52:src/../h/Riscv.hpp ****     static uint64 r_sip();
  53:src/../h/Riscv.hpp ****     static void w_sip(uint64 sip);
  54:src/../h/Riscv.hpp **** 
  55:src/../h/Riscv.hpp ****     enum BitMaskSSTATUS{
  56:src/../h/Riscv.hpp ****         SSTATUS_SIE = (1 << 1),
  57:src/../h/Riscv.hpp ****         SSTATUS_SPIE = (1 << 5),
  58:src/../h/Riscv.hpp ****         SSTATUS_SPP = (1 << 8)
  59:src/../h/Riscv.hpp ****     };
  60:src/../h/Riscv.hpp **** 
  61:src/../h/Riscv.hpp ****     static void ms_sstatus(uint64 mask); //mask
  62:src/../h/Riscv.hpp ****     static void mc_sstatus(uint64 mask); //clear
  63:src/../h/Riscv.hpp **** 
  64:src/../h/Riscv.hpp ****     static uint64 r_sstatus();
  65:src/../h/Riscv.hpp ****     static void w_sstatus(uint64 sstatus);
  66:src/../h/Riscv.hpp **** 
  67:src/../h/Riscv.hpp ****     static void moveArguments(uint64 *a){ //ucitavanje argumenata sistemskog poziva
  68:src/../h/Riscv.hpp ****         __asm__ volatile("ld %0, 80(s0)" : "=r"(a[0]));
  69:src/../h/Riscv.hpp ****         __asm__ volatile("ld %0, 88(s0)" : "=r"(a[1]));
  70:src/../h/Riscv.hpp ****         __asm__ volatile("ld %0, 96(s0)" : "=r"(a[2]));
  71:src/../h/Riscv.hpp ****         __asm__ volatile("ld %0, 104(s0)" : "=r"(a[3]));
  72:src/../h/Riscv.hpp ****         __asm__ volatile("ld %0, 112(s0)" : "=r"(a[4]));
  73:src/../h/Riscv.hpp ****     }
GAS LISTING /tmp/ccxLz2gS.s 			page 5


  74:src/../h/Riscv.hpp **** 
  75:src/../h/Riscv.hpp ****     static void w_a0(uint64 p);
  76:src/../h/Riscv.hpp **** };
  77:src/../h/Riscv.hpp **** 
  78:src/../h/Riscv.hpp **** 
  79:src/../h/Riscv.hpp **** //inline?
  80:src/../h/Riscv.hpp **** inline uint64 Riscv::r_scause()
  81:src/../h/Riscv.hpp **** {
  82:src/../h/Riscv.hpp ****     uint64 volatile scause;
  83:src/../h/Riscv.hpp ****     __asm__ volatile ("csrr %[scause], scause" : [scause] "=r"(scause));
  84:src/../h/Riscv.hpp ****     return scause;
  85:src/../h/Riscv.hpp **** }
  86:src/../h/Riscv.hpp **** 
  87:src/../h/Riscv.hpp **** inline void Riscv::w_scause(uint64 scause)
  88:src/../h/Riscv.hpp **** {
  89:src/../h/Riscv.hpp ****     __asm__ volatile ("csrw scause, %[scause]" : : [scause] "r"(scause));
  90:src/../h/Riscv.hpp **** }
  91:src/../h/Riscv.hpp **** 
  92:src/../h/Riscv.hpp **** inline uint64 Riscv::r_sepc()
  93:src/../h/Riscv.hpp **** {
  94:src/../h/Riscv.hpp ****     uint64 volatile sepc;
  95:src/../h/Riscv.hpp ****     __asm__ volatile ("csrr %[sepc], sepc" : [sepc] "=r"(sepc));
  96:src/../h/Riscv.hpp ****     return sepc;
  97:src/../h/Riscv.hpp **** }
  98:src/../h/Riscv.hpp **** 
  99:src/../h/Riscv.hpp **** inline void Riscv::w_sepc(uint64 sepc)
 100:src/../h/Riscv.hpp **** {
 101:src/../h/Riscv.hpp ****     __asm__ volatile ("csrw sepc, %[sepc]" : : [sepc] "r"(sepc));
 102:src/../h/Riscv.hpp **** }
 103:src/../h/Riscv.hpp **** 
 104:src/../h/Riscv.hpp **** inline uint64 Riscv::r_stvec()
 105:src/../h/Riscv.hpp **** {
 106:src/../h/Riscv.hpp ****     uint64 volatile stvec;
 107:src/../h/Riscv.hpp ****     __asm__ volatile ("csrr %[stvec], stvec" : [stvec] "=r"(stvec));
 108:src/../h/Riscv.hpp ****     return stvec;
 109:src/../h/Riscv.hpp **** }
 110:src/../h/Riscv.hpp **** 
 111:src/../h/Riscv.hpp **** inline void Riscv::w_stvec(uint64 stvec)
 112:src/../h/Riscv.hpp **** {
 113:src/../h/Riscv.hpp ****     __asm__ volatile ("csrw stvec, %[stvec]" : : [stvec] "r"(stvec));
 109              		.loc 2 113 5 is_stmt 1
 110              		.loc 2 113 69 is_stmt 0
 111              	#APP
 112              	# 113 "src/../h/Riscv.hpp" 1
 114              	}
 113              		csrw stvec, a5
 114              	# 0 "" 2
 115              	.LVL10:
 116              	#NO_APP
 117              	.LBE19:
 118              	.LBE18:
  28:src/main.cpp  ****     Riscv::ms_sstatus(Riscv::SSTATUS_SIE);
 119              		.loc 1 28 5 is_stmt 1
 120              	.LBB20:
 121              	.LBB21:
 115:src/../h/Riscv.hpp **** 
 116:src/../h/Riscv.hpp **** inline uint64 Riscv::r_stval()
GAS LISTING /tmp/ccxLz2gS.s 			page 6


 117:src/../h/Riscv.hpp **** {
 118:src/../h/Riscv.hpp ****     uint64 volatile stval;
 119:src/../h/Riscv.hpp ****     __asm__ volatile ("csrr %[stval], stval" : [stval] "=r"(stval));
 120:src/../h/Riscv.hpp ****     return stval;
 121:src/../h/Riscv.hpp **** }
 122:src/../h/Riscv.hpp **** 
 123:src/../h/Riscv.hpp **** inline void Riscv::w_stval(uint64 stval)
 124:src/../h/Riscv.hpp **** {
 125:src/../h/Riscv.hpp ****     __asm__ volatile ("csrw stval, %[stval]" : : [stval] "r"(stval));
 126:src/../h/Riscv.hpp **** }
 127:src/../h/Riscv.hpp **** 
 128:src/../h/Riscv.hpp **** inline void Riscv::ms_sip(uint64 mask)
 129:src/../h/Riscv.hpp **** {
 130:src/../h/Riscv.hpp ****     __asm__ volatile ("csrs sip, %[mask]" : : [mask] "r"(mask));
 131:src/../h/Riscv.hpp **** }
 132:src/../h/Riscv.hpp **** 
 133:src/../h/Riscv.hpp **** inline void Riscv::mc_sip(uint64 mask)
 134:src/../h/Riscv.hpp **** {
 135:src/../h/Riscv.hpp ****     __asm__ volatile ("csrc sip, %[mask]" : : [mask] "r"(mask));
 136:src/../h/Riscv.hpp **** }
 137:src/../h/Riscv.hpp **** 
 138:src/../h/Riscv.hpp **** inline uint64 Riscv::r_sip()
 139:src/../h/Riscv.hpp **** {
 140:src/../h/Riscv.hpp ****     uint64 volatile sip;
 141:src/../h/Riscv.hpp ****     __asm__ volatile ("csrr %[sip], sip" : [sip] "=r"(sip));
 142:src/../h/Riscv.hpp ****     return sip;
 143:src/../h/Riscv.hpp **** }
 144:src/../h/Riscv.hpp **** 
 145:src/../h/Riscv.hpp **** inline void Riscv::w_sip(uint64 sip)
 146:src/../h/Riscv.hpp **** {
 147:src/../h/Riscv.hpp ****     __asm__ volatile ("csrw sip, %[sip]" : : [sip] "r"(sip));
 148:src/../h/Riscv.hpp **** }
 149:src/../h/Riscv.hpp **** 
 150:src/../h/Riscv.hpp **** inline void Riscv::ms_sstatus(uint64 mask)
 151:src/../h/Riscv.hpp **** {
 152:src/../h/Riscv.hpp ****     __asm__ volatile ("csrs sstatus, %[mask]" : : [mask] "r"(mask));
 122              		.loc 2 152 5
 123              		.loc 2 152 68 is_stmt 0
 124 0090 13092000 		li	s2,2
 125              	#APP
 126              	# 152 "src/../h/Riscv.hpp" 1
 153              	}
 127              		csrs sstatus, s2
 128              	# 0 "" 2
 129              	.LVL11:
 130              	#NO_APP
 131              	.LBE21:
 132              	.LBE20:
  29:src/main.cpp  **** 
  30:src/main.cpp  ****     printString("Main started!\n");
 133              		.loc 1 30 5 is_stmt 1
 134              		.loc 1 30 16 is_stmt 0
 135 0098 17050000 		lla	a0,.LC2
 135      13050500 
 136 00a0 97000000 		call	_Z11printStringPKc@plt
 136      E7800000 
 137              	.LVL12:
GAS LISTING /tmp/ccxLz2gS.s 			page 7


  31:src/main.cpp  **** 
  32:src/main.cpp  ****     sem_t user_sem;
 138              		.loc 1 32 5 is_stmt 1
  33:src/main.cpp  ****     sem_open(&user_sem, 0);
 139              		.loc 1 33 5
 140              		.loc 1 33 13 is_stmt 0
 141 00a8 93050000 		li	a1,0
 142 00ac 130584FD 		addi	a0,s0,-40
 143 00b0 97000000 		call	_Z8sem_openPP14SemDescriptionj@plt
 143      E7800000 
 144              	.LVL13:
  34:src/main.cpp  **** 
  35:src/main.cpp  ****     thread_t user;
 145              		.loc 1 35 5 is_stmt 1
  36:src/main.cpp  ****     thread_create(&user, userWrapper, user_sem);
 146              		.loc 1 36 5
 147              		.loc 1 36 18 is_stmt 0
 148 00b8 033684FD 		ld	a2,-40(s0)
 149 00bc 97050000 		lla	a1,_Z11userWrapperPv
 149      93850500 
 150 00c4 130504FD 		addi	a0,s0,-48
 151 00c8 97000000 		call	_Z13thread_createPP3PCBPFvPvES2_@plt
 151      E7800000 
 152              	.LVL14:
  37:src/main.cpp  **** 
  38:src/main.cpp  ****     sem_wait(user_sem);//kad se javi signal prolazi i gasi semafor
 153              		.loc 1 38 5 is_stmt 1
 154              		.loc 1 38 13 is_stmt 0
 155 00d0 033584FD 		ld	a0,-40(s0)
 156 00d4 97000000 		call	_Z8sem_waitP14SemDescription@plt
 156      E7800000 
 157              	.LVL15:
  39:src/main.cpp  ****     sem_close(user_sem);
 158              		.loc 1 39 5 is_stmt 1
 159              		.loc 1 39 14 is_stmt 0
 160 00dc 033584FD 		ld	a0,-40(s0)
 161 00e0 97000000 		call	_Z9sem_closeP14SemDescription@plt
 161      E7800000 
 162              	.LVL16:
  40:src/main.cpp  **** 
  41:src/main.cpp  ****     Riscv::mc_sstatus(Riscv::SSTATUS_SIE);
 163              		.loc 1 41 5 is_stmt 1
 164              	.LBB22:
 165              	.LBB23:
 154:src/../h/Riscv.hpp **** 
 155:src/../h/Riscv.hpp **** inline void Riscv::mc_sstatus(uint64 mask)
 156:src/../h/Riscv.hpp **** {
 157:src/../h/Riscv.hpp ****     __asm__ volatile ("csrc sstatus, %[mask]" : : [mask] "r"(mask));
 166              		.loc 2 157 5
 167              		.loc 2 157 68 is_stmt 0
 168              	#APP
 169              	# 157 "src/../h/Riscv.hpp" 1
 158              	}
 170              		csrc sstatus, s2
 171              	# 0 "" 2
 172              	.LVL17:
 173              	#NO_APP
GAS LISTING /tmp/ccxLz2gS.s 			page 8


 174              	.LBE23:
 175              	.LBE22:
  42:src/main.cpp  ****     delete kernel;
 176              		.loc 1 42 5 is_stmt 1
 177              		.loc 1 42 18 is_stmt 0
 178 00ec 63800402 		beqz	s1,.L4
 179              	.LVL18:
 180              	.LBB24:
 181              	.LBB25:
 182              		.file 3 "src/../h/PCB.hpp"
   1:src/../h/PCB.hpp **** //
   2:src/../h/PCB.hpp **** // Created by os on 8/2/22.
   3:src/../h/PCB.hpp **** //
   4:src/../h/PCB.hpp **** 
   5:src/../h/PCB.hpp **** #ifndef PROJECT_BASE_PCB_HPP
   6:src/../h/PCB.hpp **** #define PROJECT_BASE_PCB_HPP
   7:src/../h/PCB.hpp **** 
   8:src/../h/PCB.hpp **** 
   9:src/../h/PCB.hpp **** #include "../lib/hw.h"
  10:src/../h/PCB.hpp **** #include "Scheduler.hpp"
  11:src/../h/PCB.hpp **** #include "syscall_c.h"
  12:src/../h/PCB.hpp **** 
  13:src/../h/PCB.hpp **** class PCB{
  14:src/../h/PCB.hpp **** 
  15:src/../h/PCB.hpp **** public:
  16:src/../h/PCB.hpp ****     bool waiting = false;
  17:src/../h/PCB.hpp **** 
  18:src/../h/PCB.hpp ****     sem_t sem = nullptr;
  19:src/../h/PCB.hpp **** 
  20:src/../h/PCB.hpp ****     ~PCB(){ delete []stack; }
 183              		.loc 3 20 13 is_stmt 1
 184              		.loc 3 20 22 is_stmt 0
 185 00f0 03B58401 		ld	a0,24(s1)
 186              		.loc 3 20 27
 187 00f4 63060500 		beqz	a0,.L5
 188              		.loc 3 20 22
 189 00f8 97000000 		call	_ZdaPv@plt
 189      E7800000 
 190              	.LVL19:
 191              	.L5:
 192              	.LBE25:
 193              	.LBE24:
 194              	.LBB26:
 195              	.LBB27:
  21:src/../h/PCB.hpp **** 
  22:src/../h/PCB.hpp ****     using Body = void(*)(void*);
  23:src/../h/PCB.hpp **** 
  24:src/../h/PCB.hpp ****     static PCB* createThread(Body body, void* arg, uint64* stack); //odmah zapocinje
  25:src/../h/PCB.hpp **** 
  26:src/../h/PCB.hpp ****     static PCB* makeOnlyThread(Body body, void* arg, uint64* stack); //napravi pa se posle moze pok
  27:src/../h/PCB.hpp **** 
  28:src/../h/PCB.hpp ****     static PCB* kernelThreadMaker();
  29:src/../h/PCB.hpp **** 
  30:src/../h/PCB.hpp ****     void* operator new(size_t size){ return MemoryAllocator::mem_alloc(size); }
  31:src/../h/PCB.hpp **** 
  32:src/../h/PCB.hpp ****     void operator delete(void* p){ MemoryAllocator::mem_free(p); }
 196              		.loc 3 32 36 is_stmt 1
GAS LISTING /tmp/ccxLz2gS.s 			page 9


 197              		.loc 3 32 61 is_stmt 0
 198 0100 13850400 		mv	a0,s1
 199 0104 97000000 		call	_ZN15MemoryAllocator8mem_freeEPv@plt
 199      E7800000 
 200              	.LVL20:
 201              	.L4:
 202              	.LBE27:
 203              	.LBE26:
  43:src/main.cpp  ****     delete user;
 204              		.loc 1 43 5 is_stmt 1
 205              		.loc 1 43 12 is_stmt 0
 206 010c 833404FD 		ld	s1,-48(s0)
 207              	.LVL21:
 208              		.loc 1 43 16
 209 0110 63800402 		beqz	s1,.L6
 210              	.LVL22:
 211              	.LBB28:
 212              	.LBB29:
  20:src/../h/PCB.hpp **** 
 213              		.loc 3 20 13 is_stmt 1
  20:src/../h/PCB.hpp **** 
 214              		.loc 3 20 22 is_stmt 0
 215 0114 03B58401 		ld	a0,24(s1)
  20:src/../h/PCB.hpp **** 
 216              		.loc 3 20 27
 217 0118 63060500 		beqz	a0,.L7
  20:src/../h/PCB.hpp **** 
 218              		.loc 3 20 22
 219 011c 97000000 		call	_ZdaPv@plt
 219      E7800000 
 220              	.LVL23:
 221              	.L7:
 222              	.LBE29:
 223              	.LBE28:
 224              	.LBB30:
 225              	.LBB31:
 226              		.loc 3 32 36 is_stmt 1
 227              		.loc 3 32 61 is_stmt 0
 228 0124 13850400 		mv	a0,s1
 229 0128 97000000 		call	_ZN15MemoryAllocator8mem_freeEPv@plt
 229      E7800000 
 230              	.LVL24:
 231              	.L6:
 232              	.LBE31:
 233              	.LBE30:
  44:src/main.cpp  ****     printString("Main finished!\n");
 234              		.loc 1 44 5 is_stmt 1
 235              		.loc 1 44 16 is_stmt 0
 236 0130 17050000 		lla	a0,.LC3
 236      13050500 
 237 0138 97000000 		call	_Z11printStringPKc@plt
 237      E7800000 
 238              	.LVL25:
  45:src/main.cpp  **** 
  46:src/main.cpp  ****     return 0;
 239              		.loc 1 46 5 is_stmt 1
  47:src/main.cpp  **** }
GAS LISTING /tmp/ccxLz2gS.s 			page 10


 240              		.loc 1 47 1 is_stmt 0
 241 0140 13050000 		li	a0,0
 242 0144 83308102 		ld	ra,40(sp)
 243              		.cfi_restore 1
 244 0148 03340102 		ld	s0,32(sp)
 245              		.cfi_restore 8
 246              		.cfi_def_cfa 2, 48
 247 014c 83348101 		ld	s1,24(sp)
 248              		.cfi_restore 9
 249 0150 03390101 		ld	s2,16(sp)
 250              		.cfi_restore 18
 251 0154 13010103 		addi	sp,sp,48
 252              		.cfi_def_cfa_offset 0
 253 0158 67800000 		jr	ra
 254              		.cfi_endproc
 255              	.LFE64:
 257              	.Letext0:
 258              		.file 4 "src/../lib/hw.h"
 259              		.file 5 "src/../h/MemoryAllocator.hpp"
 260              		.file 6 "src/../h/syscall_c.h"
 261              		.file 7 "src/../h/SemDescription.hpp"
 262              		.file 8 "src/../h/Queue.hpp"
 263              		.file 9 "src/../test/printing.hpp"
 264              		.file 10 "src/../h/userMain.hpp"
GAS LISTING /tmp/ccxLz2gS.s 			page 11


DEFINED SYMBOLS
                            *ABS*:0000000000000000 main.cpp
     /tmp/ccxLz2gS.s:17     .text:0000000000000000 _Z11userWrapperPv
     /tmp/ccxLz2gS.s:21     .text:0000000000000000 .L0 
     /tmp/ccxLz2gS.s:23     .text:0000000000000000 .L0 
     /tmp/ccxLz2gS.s:24     .text:0000000000000004 .L0 
     /tmp/ccxLz2gS.s:28     .text:0000000000000010 .L0 
     /tmp/ccxLz2gS.s:29     .text:0000000000000010 .L0 
     /tmp/ccxLz2gS.s:30     .text:0000000000000010 .L0 
     /tmp/ccxLz2gS.s:32     .text:0000000000000014 .L0 
     /tmp/ccxLz2gS.s:35     .text:0000000000000018 .L0 
     /tmp/ccxLz2gS.s:36     .text:0000000000000018 .L0 
     /tmp/ccxLz2gS.s:41     .text:0000000000000028 .L0 
     /tmp/ccxLz2gS.s:42     .text:0000000000000028 .L0 
     /tmp/ccxLz2gS.s:45     .text:0000000000000030 .L0 
     /tmp/ccxLz2gS.s:46     .text:0000000000000030 .L0 
     /tmp/ccxLz2gS.s:50     .text:0000000000000040 .L0 
     /tmp/ccxLz2gS.s:51     .text:0000000000000040 .L0 
     /tmp/ccxLz2gS.s:55     .text:000000000000004c .L0 
     /tmp/ccxLz2gS.s:56     .text:0000000000000050 .L0 
     /tmp/ccxLz2gS.s:58     .text:0000000000000054 .L0 
     /tmp/ccxLz2gS.s:59     .text:0000000000000054 .L0 
     /tmp/ccxLz2gS.s:61     .text:0000000000000058 .L0 
     /tmp/ccxLz2gS.s:64     .text:000000000000005c .L0 
     /tmp/ccxLz2gS.s:66     .text:0000000000000060 .L0 
     /tmp/ccxLz2gS.s:80     .text:0000000000000060 main
     /tmp/ccxLz2gS.s:83     .text:0000000000000060 .L0 
     /tmp/ccxLz2gS.s:84     .text:0000000000000060 .L0 
     /tmp/ccxLz2gS.s:85     .text:0000000000000064 .L0 
     /tmp/ccxLz2gS.s:90     .text:0000000000000074 .L0 
     /tmp/ccxLz2gS.s:91     .text:0000000000000074 .L0 
     /tmp/ccxLz2gS.s:92     .text:0000000000000074 .L0 
     /tmp/ccxLz2gS.s:93     .text:0000000000000074 .L0 
     /tmp/ccxLz2gS.s:95     .text:0000000000000078 .L0 
     /tmp/ccxLz2gS.s:97     .text:0000000000000078 .L0 
     /tmp/ccxLz2gS.s:98     .text:0000000000000078 .L0 
     /tmp/ccxLz2gS.s:103    .text:0000000000000084 .L0 
     /tmp/ccxLz2gS.s:104    .text:0000000000000084 .L0 
     /tmp/ccxLz2gS.s:110    .text:000000000000008c .L0 
  src/../h/Riscv.hpp:113    .text:000000000000008c .L0 
     /tmp/ccxLz2gS.s:122    .text:0000000000000090 .L0 
     /tmp/ccxLz2gS.s:123    .text:0000000000000090 .L0 
     /tmp/ccxLz2gS.s:124    .text:0000000000000090 .L0 
     /tmp/ccxLz2gS.s:134    .text:0000000000000098 .L0 
     /tmp/ccxLz2gS.s:135    .text:0000000000000098 .L0 
     /tmp/ccxLz2gS.s:139    .text:00000000000000a8 .L0 
     /tmp/ccxLz2gS.s:140    .text:00000000000000a8 .L0 
     /tmp/ccxLz2gS.s:141    .text:00000000000000a8 .L0 
     /tmp/ccxLz2gS.s:146    .text:00000000000000b8 .L0 
     /tmp/ccxLz2gS.s:147    .text:00000000000000b8 .L0 
     /tmp/ccxLz2gS.s:148    .text:00000000000000b8 .L0 
     /tmp/ccxLz2gS.s:154    .text:00000000000000d0 .L0 
     /tmp/ccxLz2gS.s:155    .text:00000000000000d0 .L0 
     /tmp/ccxLz2gS.s:159    .text:00000000000000dc .L0 
     /tmp/ccxLz2gS.s:160    .text:00000000000000dc .L0 
     /tmp/ccxLz2gS.s:166    .text:00000000000000e8 .L0 
     /tmp/ccxLz2gS.s:167    .text:00000000000000e8 .L0 
GAS LISTING /tmp/ccxLz2gS.s 			page 12


  src/../h/Riscv.hpp:157    .text:00000000000000e8 .L0 
     /tmp/ccxLz2gS.s:177    .text:00000000000000ec .L0 
     /tmp/ccxLz2gS.s:178    .text:00000000000000ec .L0 
     /tmp/ccxLz2gS.s:184    .text:00000000000000f0 .L0 
     /tmp/ccxLz2gS.s:185    .text:00000000000000f0 .L0 
     /tmp/ccxLz2gS.s:187    .text:00000000000000f4 .L0 
     /tmp/ccxLz2gS.s:189    .text:00000000000000f8 .L0 
     /tmp/ccxLz2gS.s:197    .text:0000000000000100 .L0 
     /tmp/ccxLz2gS.s:198    .text:0000000000000100 .L0 
     /tmp/ccxLz2gS.s:205    .text:000000000000010c .L0 
     /tmp/ccxLz2gS.s:206    .text:000000000000010c .L0 
     /tmp/ccxLz2gS.s:209    .text:0000000000000110 .L0 
     /tmp/ccxLz2gS.s:214    .text:0000000000000114 .L0 
     /tmp/ccxLz2gS.s:215    .text:0000000000000114 .L0 
     /tmp/ccxLz2gS.s:217    .text:0000000000000118 .L0 
     /tmp/ccxLz2gS.s:219    .text:000000000000011c .L0 
     /tmp/ccxLz2gS.s:227    .text:0000000000000124 .L0 
     /tmp/ccxLz2gS.s:228    .text:0000000000000124 .L0 
     /tmp/ccxLz2gS.s:235    .text:0000000000000130 .L0 
     /tmp/ccxLz2gS.s:236    .text:0000000000000130 .L0 
     /tmp/ccxLz2gS.s:240    .text:0000000000000140 .L0 
     /tmp/ccxLz2gS.s:241    .text:0000000000000140 .L0 
     /tmp/ccxLz2gS.s:243    .text:0000000000000148 .L0 
     /tmp/ccxLz2gS.s:245    .text:000000000000014c .L0 
     /tmp/ccxLz2gS.s:246    .text:000000000000014c .L0 
     /tmp/ccxLz2gS.s:248    .text:0000000000000150 .L0 
     /tmp/ccxLz2gS.s:250    .text:0000000000000154 .L0 
     /tmp/ccxLz2gS.s:252    .text:0000000000000158 .L0 
     /tmp/ccxLz2gS.s:254    .text:000000000000015c .L0 
     /tmp/ccxLz2gS.s:265    .text:000000000000015c .L0 
     /tmp/ccxLz2gS.s:8      .rodata.str1.8:0000000000000000 .LC0
     /tmp/ccxLz2gS.s:36     .text:0000000000000018 .L0 
     /tmp/ccxLz2gS.s:11     .rodata.str1.8:0000000000000018 .LC1
     /tmp/ccxLz2gS.s:46     .text:0000000000000030 .L0 
     /tmp/ccxLz2gS.s:104    .text:0000000000000084 .L0 
     /tmp/ccxLz2gS.s:71     .rodata.str1.8:0000000000000030 .LC2
     /tmp/ccxLz2gS.s:135    .text:0000000000000098 .L0 
     /tmp/ccxLz2gS.s:149    .text:00000000000000bc .L0 
     /tmp/ccxLz2gS.s:74     .rodata.str1.8:0000000000000040 .LC3
     /tmp/ccxLz2gS.s:236    .text:0000000000000130 .L0 
     /tmp/ccxLz2gS.s:201    .text:000000000000010c .L4
     /tmp/ccxLz2gS.s:191    .text:0000000000000100 .L5
     /tmp/ccxLz2gS.s:231    .text:0000000000000130 .L6
     /tmp/ccxLz2gS.s:221    .text:0000000000000124 .L7
     /tmp/ccxLz2gS.s:1866   .debug_abbrev:0000000000000000 .Ldebug_abbrev0
     /tmp/ccxLz2gS.s:3479   .debug_str:000000000000096f .LASF191
     /tmp/ccxLz2gS.s:3255   .debug_str:00000000000002fd .LASF192
     /tmp/ccxLz2gS.s:3271   .debug_str:0000000000000367 .LASF193
     /tmp/ccxLz2gS.s:5      .text:0000000000000000 .Ltext0
     /tmp/ccxLz2gS.s:257    .text:000000000000015c .Letext0
     /tmp/ccxLz2gS.s:3157   .debug_line:0000000000000000 .Ldebug_line0
     /tmp/ccxLz2gS.s:3299   .debug_str:0000000000000457 .LASF0
     /tmp/ccxLz2gS.s:3321   .debug_str:00000000000004f7 .LASF1
     /tmp/ccxLz2gS.s:3403   .debug_str:000000000000074f .LASF2
     /tmp/ccxLz2gS.s:3415   .debug_str:00000000000007b4 .LASF4
     /tmp/ccxLz2gS.s:3307   .debug_str:000000000000048b .LASF3
     /tmp/ccxLz2gS.s:3171   .debug_str:000000000000005e .LASF5
GAS LISTING /tmp/ccxLz2gS.s 			page 13


     /tmp/ccxLz2gS.s:3367   .debug_str:000000000000065f .LASF6
     /tmp/ccxLz2gS.s:3311   .debug_str:00000000000004c2 .LASF7
     /tmp/ccxLz2gS.s:3265   .debug_str:0000000000000333 .LASF8
     /tmp/ccxLz2gS.s:3275   .debug_str:0000000000000397 .LASF9
     /tmp/ccxLz2gS.s:3207   .debug_str:0000000000000166 .LASF10
     /tmp/ccxLz2gS.s:3253   .debug_str:00000000000002ee .LASF11
     /tmp/ccxLz2gS.s:3219   .debug_str:00000000000001b5 .LASF12
     /tmp/ccxLz2gS.s:3205   .debug_str:0000000000000156 .LASF13
     /tmp/ccxLz2gS.s:3459   .debug_str:00000000000008de .LASF14
     /tmp/ccxLz2gS.s:3245   .debug_str:000000000000029f .LASF15
     /tmp/ccxLz2gS.s:3449   .debug_str:00000000000008a0 .LASF16
     /tmp/ccxLz2gS.s:3387   .debug_str:00000000000006fe .LASF33
     /tmp/ccxLz2gS.s:3319   .debug_str:00000000000004f2 .LASF17
     /tmp/ccxLz2gS.s:3209   .debug_str:0000000000000175 .LASF18
     /tmp/ccxLz2gS.s:3183   .debug_str:00000000000000c2 .LASF19
     /tmp/ccxLz2gS.s:3363   .debug_str:0000000000000641 .LASF27
     /tmp/ccxLz2gS.s:3423   .debug_str:00000000000007e4 .LASF20
     /tmp/ccxLz2gS.s:3223   .debug_str:00000000000001cc .LASF22
     /tmp/ccxLz2gS.s:3537   .debug_str:0000000000000bd9 .LASF21
     /tmp/ccxLz2gS.s:3473   .debug_str:000000000000092a .LASF23
     /tmp/ccxLz2gS.s:3393   .debug_str:0000000000000715 .LASF24
     /tmp/ccxLz2gS.s:3467   .debug_str:0000000000000903 .LASF25
     /tmp/ccxLz2gS.s:3345   .debug_str:00000000000005cf .LASF36
     /tmp/ccxLz2gS.s:3175   .debug_str:0000000000000070 .LASF38
     /tmp/ccxLz2gS.s:3465   .debug_str:00000000000008fa .LASF46
     /tmp/ccxLz2gS.s:3347   .debug_str:00000000000005d9 .LASF48
     /tmp/ccxLz2gS.s:3333   .debug_str:0000000000000562 .LASF26
     /tmp/ccxLz2gS.s:3435   .debug_str:000000000000084f .LASF116
     /tmp/ccxLz2gS.s:3439   .debug_str:000000000000086c .LASF28
     /tmp/ccxLz2gS.s:3201   .debug_str:0000000000000147 .LASF29
     /tmp/ccxLz2gS.s:3195   .debug_str:000000000000011f .LASF30
     /tmp/ccxLz2gS.s:3377   .debug_str:00000000000006be .LASF31
     /tmp/ccxLz2gS.s:3433   .debug_str:0000000000000843 .LASF32
     /tmp/ccxLz2gS.s:3215   .debug_str:0000000000000197 .LASF34
     /tmp/ccxLz2gS.s:3283   .debug_str:00000000000003dd .LASF35
     /tmp/ccxLz2gS.s:3523   .debug_str:0000000000000b63 .LASF37
     /tmp/ccxLz2gS.s:3549   .debug_str:0000000000000c20 .LASF39
     /tmp/ccxLz2gS.s:3457   .debug_str:00000000000008d1 .LASF40
     /tmp/ccxLz2gS.s:3517   .debug_str:0000000000000b25 .LASF41
     /tmp/ccxLz2gS.s:3361   .debug_str:000000000000063c .LASF194
     /tmp/ccxLz2gS.s:3397   .debug_str:000000000000072c .LASF42
     /tmp/ccxLz2gS.s:3535   .debug_str:0000000000000bb5 .LASF43
     /tmp/ccxLz2gS.s:3519   .debug_str:0000000000000b47 .LASF60
     /tmp/ccxLz2gS.s:3481   .debug_str:0000000000000a33 .LASF62
     /tmp/ccxLz2gS.s:3553   .debug_str:0000000000000c44 .LASF44
     /tmp/ccxLz2gS.s:3247   .debug_str:00000000000002b5 .LASF45
     /tmp/ccxLz2gS.s:3163   .debug_str:000000000000001d .LASF47
     /tmp/ccxLz2gS.s:3305   .debug_str:000000000000047e .LASF49
     /tmp/ccxLz2gS.s:3279   .debug_str:00000000000003c7 .LASF52
     /tmp/ccxLz2gS.s:3525   .debug_str:0000000000000b68 .LASF54
     /tmp/ccxLz2gS.s:3211   .debug_str:000000000000017a .LASF50
     /tmp/ccxLz2gS.s:3309   .debug_str:000000000000049d .LASF51
     /tmp/ccxLz2gS.s:3325   .debug_str:0000000000000527 .LASF53
     /tmp/ccxLz2gS.s:3337   .debug_str:0000000000000582 .LASF55
     /tmp/ccxLz2gS.s:3475   .debug_str:000000000000095a .LASF56
     /tmp/ccxLz2gS.s:3547   .debug_str:0000000000000c19 .LASF57
     /tmp/ccxLz2gS.s:3545   .debug_str:0000000000000c13 .LASF58
GAS LISTING /tmp/ccxLz2gS.s 			page 14


     /tmp/ccxLz2gS.s:3483   .debug_str:0000000000000a50 .LASF59
     /tmp/ccxLz2gS.s:3445   .debug_str:0000000000000888 .LASF61
     /tmp/ccxLz2gS.s:3407   .debug_str:0000000000000775 .LASF63
     /tmp/ccxLz2gS.s:3499   .debug_str:0000000000000ac7 .LASF64
     /tmp/ccxLz2gS.s:3353   .debug_str:0000000000000607 .LASF65
     /tmp/ccxLz2gS.s:3427   .debug_str:0000000000000802 .LASF66
     /tmp/ccxLz2gS.s:3161   .debug_str:0000000000000018 .LASF67
     /tmp/ccxLz2gS.s:3443   .debug_str:0000000000000882 .LASF68
     /tmp/ccxLz2gS.s:3493   .debug_str:0000000000000a8c .LASF69
     /tmp/ccxLz2gS.s:3511   .debug_str:0000000000000b0b .LASF70
     /tmp/ccxLz2gS.s:3487   .debug_str:0000000000000a74 .LASF71
     /tmp/ccxLz2gS.s:3411   .debug_str:0000000000000796 .LASF72
     /tmp/ccxLz2gS.s:3263   .debug_str:0000000000000328 .LASF73
     /tmp/ccxLz2gS.s:3235   .debug_str:000000000000024b .LASF76
     /tmp/ccxLz2gS.s:3179   .debug_str:0000000000000097 .LASF78
     /tmp/ccxLz2gS.s:3225   .debug_str:00000000000001f8 .LASF74
     /tmp/ccxLz2gS.s:3189   .debug_str:00000000000000e6 .LASF75
     /tmp/ccxLz2gS.s:3197   .debug_str:0000000000000128 .LASF77
     /tmp/ccxLz2gS.s:3185   .debug_str:00000000000000c7 .LASF79
     /tmp/ccxLz2gS.s:3425   .debug_str:00000000000007ec .LASF112
     /tmp/ccxLz2gS.s:3193   .debug_str:0000000000000113 .LASF195
     /tmp/ccxLz2gS.s:3513   .debug_str:0000000000000b12 .LASF80
     /tmp/ccxLz2gS.s:3539   .debug_str:0000000000000be4 .LASF81
     /tmp/ccxLz2gS.s:3451   .debug_str:00000000000008b6 .LASF82
     /tmp/ccxLz2gS.s:3437   .debug_str:000000000000085c .LASF83
     /tmp/ccxLz2gS.s:3159   .debug_str:0000000000000000 .LASF84
     /tmp/ccxLz2gS.s:3181   .debug_str:00000000000000aa .LASF85
     /tmp/ccxLz2gS.s:3533   .debug_str:0000000000000b9c .LASF86
     /tmp/ccxLz2gS.s:3357   .debug_str:000000000000061f .LASF87
     /tmp/ccxLz2gS.s:3203   .debug_str:000000000000014d .LASF88
     /tmp/ccxLz2gS.s:3375   .debug_str:00000000000006a2 .LASF89
     /tmp/ccxLz2gS.s:3289   .debug_str:000000000000040f .LASF90
     /tmp/ccxLz2gS.s:3543   .debug_str:0000000000000bf6 .LASF91
     /tmp/ccxLz2gS.s:3237   .debug_str:0000000000000254 .LASF92
     /tmp/ccxLz2gS.s:3233   .debug_str:0000000000000230 .LASF93
     /tmp/ccxLz2gS.s:3461   .debug_str:00000000000008ea .LASF94
     /tmp/ccxLz2gS.s:3243   .debug_str:0000000000000282 .LASF95
     /tmp/ccxLz2gS.s:3177   .debug_str:0000000000000091 .LASF96
     /tmp/ccxLz2gS.s:3429   .debug_str:0000000000000813 .LASF97
     /tmp/ccxLz2gS.s:3297   .debug_str:0000000000000451 .LASF98
     /tmp/ccxLz2gS.s:3501   .debug_str:0000000000000acd .LASF99
     /tmp/ccxLz2gS.s:3165   .debug_str:000000000000002d .LASF100
     /tmp/ccxLz2gS.s:3277   .debug_str:00000000000003a5 .LASF101
     /tmp/ccxLz2gS.s:3491   .debug_str:0000000000000a86 .LASF102
     /tmp/ccxLz2gS.s:3507   .debug_str:0000000000000b01 .LASF104
     /tmp/ccxLz2gS.s:3317   .debug_str:00000000000004ed .LASF103
     /tmp/ccxLz2gS.s:3239   .debug_str:0000000000000259 .LASF105
     /tmp/ccxLz2gS.s:3413   .debug_str:00000000000007a1 .LASF106
     /tmp/ccxLz2gS.s:3373   .debug_str:000000000000068e .LASF196
     /tmp/ccxLz2gS.s:3453   .debug_str:00000000000008c5 .LASF107
     /tmp/ccxLz2gS.s:3351   .debug_str:0000000000000602 .LASF108
     /tmp/ccxLz2gS.s:3489   .debug_str:0000000000000a7e .LASF109
     /tmp/ccxLz2gS.s:3241   .debug_str:0000000000000274 .LASF110
     /tmp/ccxLz2gS.s:3273   .debug_str:0000000000000385 .LASF111
     /tmp/ccxLz2gS.s:3431   .debug_str:000000000000082f .LASF113
     /tmp/ccxLz2gS.s:3417   .debug_str:00000000000007bb .LASF114
     /tmp/ccxLz2gS.s:3187   .debug_str:00000000000000e0 .LASF115
GAS LISTING /tmp/ccxLz2gS.s 			page 15


     /tmp/ccxLz2gS.s:3505   .debug_str:0000000000000af2 .LASF117
     /tmp/ccxLz2gS.s:3251   .debug_str:00000000000002e2 .LASF118
     /tmp/ccxLz2gS.s:3477   .debug_str:0000000000000962 .LASF119
     /tmp/ccxLz2gS.s:3229   .debug_str:0000000000000212 .LASF120
     /tmp/ccxLz2gS.s:3315   .debug_str:00000000000004e8 .LASF121
     /tmp/ccxLz2gS.s:3339   .debug_str:000000000000059b .LASF123
     /tmp/ccxLz2gS.s:3285   .debug_str:00000000000003e5 .LASF122
     /tmp/ccxLz2gS.s:3295   .debug_str:0000000000000439 .LASF124
     /tmp/ccxLz2gS.s:3409   .debug_str:0000000000000784 .LASF125
     /tmp/ccxLz2gS.s:3287   .debug_str:00000000000003f0 .LASF126
     /tmp/ccxLz2gS.s:3365   .debug_str:0000000000000651 .LASF127
     /tmp/ccxLz2gS.s:3335   .debug_str:0000000000000567 .LASF128
     /tmp/ccxLz2gS.s:3395   .debug_str:0000000000000721 .LASF129
     /tmp/ccxLz2gS.s:3269   .debug_str:000000000000034f .LASF130
     /tmp/ccxLz2gS.s:3503   .debug_str:0000000000000ae9 .LASF131
     /tmp/ccxLz2gS.s:3495   .debug_str:0000000000000a94 .LASF132
     /tmp/ccxLz2gS.s:3399   .debug_str:000000000000073b .LASF133
     /tmp/ccxLz2gS.s:3359   .debug_str:0000000000000627 .LASF134
     /tmp/ccxLz2gS.s:3379   .debug_str:00000000000006c6 .LASF135
     /tmp/ccxLz2gS.s:3381   .debug_str:00000000000006cd .LASF136
     /tmp/ccxLz2gS.s:3221   .debug_str:00000000000001c5 .LASF137
     /tmp/ccxLz2gS.s:3313   .debug_str:00000000000004d5 .LASF138
     /tmp/ccxLz2gS.s:3529   .debug_str:0000000000000b8d .LASF139
     /tmp/ccxLz2gS.s:3485   .debug_str:0000000000000a60 .LASF140
     /tmp/ccxLz2gS.s:3349   .debug_str:00000000000005fa .LASF141
     /tmp/ccxLz2gS.s:3257   .debug_str:000000000000030a .LASF142
     /tmp/ccxLz2gS.s:3329   .debug_str:0000000000000554 .LASF143
     /tmp/ccxLz2gS.s:3385   .debug_str:00000000000006ea .LASF144
     /tmp/ccxLz2gS.s:3555   .debug_str:0000000000000c51 .LASF145
     /tmp/ccxLz2gS.s:3303   .debug_str:000000000000046a .LASF146
     /tmp/ccxLz2gS.s:3455   .debug_str:00000000000008ca .LASF147
     /tmp/ccxLz2gS.s:3421   .debug_str:00000000000007d1 .LASF148
     /tmp/ccxLz2gS.s:3531   .debug_str:0000000000000b95 .LASF149
     /tmp/ccxLz2gS.s:3213   .debug_str:0000000000000184 .LASF150
     /tmp/ccxLz2gS.s:3419   .debug_str:00000000000007cb .LASF151
     /tmp/ccxLz2gS.s:3293   .debug_str:0000000000000427 .LASF152
     /tmp/ccxLz2gS.s:3301   .debug_str:0000000000000464 .LASF153
     /tmp/ccxLz2gS.s:3231   .debug_str:000000000000021e .LASF154
     /tmp/ccxLz2gS.s:3173   .debug_str:0000000000000065 .LASF155
     /tmp/ccxLz2gS.s:3405   .debug_str:000000000000075d .LASF156
     /tmp/ccxLz2gS.s:3401   .debug_str:0000000000000744 .LASF157
     /tmp/ccxLz2gS.s:3551   .debug_str:0000000000000c2c .LASF158
     /tmp/ccxLz2gS.s:3521   .debug_str:0000000000000b59 .LASF159
     /tmp/ccxLz2gS.s:3217   .debug_str:000000000000019f .LASF160
     /tmp/ccxLz2gS.s:3515   .debug_str:0000000000000b1b .LASF161
     /tmp/ccxLz2gS.s:3341   .debug_str:00000000000005ac .LASF162
     /tmp/ccxLz2gS.s:3441   .debug_str:0000000000000874 .LASF163
     /tmp/ccxLz2gS.s:3469   .debug_str:0000000000000909 .LASF164
     /tmp/ccxLz2gS.s:3191   .debug_str:000000000000010e .LASF165
     /tmp/ccxLz2gS.s:3199   .debug_str:0000000000000136 .LASF166
     /tmp/ccxLz2gS.s:3471   .debug_str:0000000000000925 .LASF167
     /tmp/ccxLz2gS.s:3261   .debug_str:0000000000000323 .LASF168
     /tmp/ccxLz2gS.s:81     .text:0000000000000060 .LFB64
     /tmp/ccxLz2gS.s:255    .text:000000000000015c .LFE64
     /tmp/ccxLz2gS.s:3075   .debug_loc:0000000000000000 .LLST1
     /tmp/ccxLz2gS.s:3463   .debug_str:00000000000008f1 .LASF169
     /tmp/ccxLz2gS.s:3389   .debug_str:0000000000000707 .LASF170
GAS LISTING /tmp/ccxLz2gS.s 			page 16


     /tmp/ccxLz2gS.s:106    .text:000000000000008c .LBB18
     /tmp/ccxLz2gS.s:118    .text:0000000000000090 .LBE18
     /tmp/ccxLz2gS.s:120    .text:0000000000000090 .LBB20
     /tmp/ccxLz2gS.s:132    .text:0000000000000098 .LBE20
     /tmp/ccxLz2gS.s:3082   .debug_loc:0000000000000023 .LLST2
     /tmp/ccxLz2gS.s:164    .text:00000000000000e8 .LBB22
     /tmp/ccxLz2gS.s:175    .text:00000000000000ec .LBE22
     /tmp/ccxLz2gS.s:3090   .debug_loc:0000000000000047 .LLST3
     /tmp/ccxLz2gS.s:180    .text:00000000000000f0 .LBB24
     /tmp/ccxLz2gS.s:193    .text:0000000000000100 .LBE24
     /tmp/ccxLz2gS.s:3098   .debug_loc:000000000000006b .LLST4
     /tmp/ccxLz2gS.s:190    .text:0000000000000100 .LVL19
     /tmp/ccxLz2gS.s:194    .text:0000000000000100 .LBB26
     /tmp/ccxLz2gS.s:203    .text:000000000000010c .LBE26
     /tmp/ccxLz2gS.s:3105   .debug_loc:000000000000008e .LLST5
     /tmp/ccxLz2gS.s:200    .text:000000000000010c .LVL20
     /tmp/ccxLz2gS.s:211    .text:0000000000000114 .LBB28
     /tmp/ccxLz2gS.s:223    .text:0000000000000124 .LBE28
     /tmp/ccxLz2gS.s:3112   .debug_loc:00000000000000b1 .LLST6
     /tmp/ccxLz2gS.s:220    .text:0000000000000124 .LVL23
     /tmp/ccxLz2gS.s:224    .text:0000000000000124 .LBB30
     /tmp/ccxLz2gS.s:233    .text:0000000000000130 .LBE30
     /tmp/ccxLz2gS.s:3119   .debug_loc:00000000000000d4 .LLST7
     /tmp/ccxLz2gS.s:230    .text:0000000000000130 .LVL24
     /tmp/ccxLz2gS.s:99     .text:0000000000000080 .LVL7
     /tmp/ccxLz2gS.s:137    .text:00000000000000a8 .LVL12
     /tmp/ccxLz2gS.s:144    .text:00000000000000b8 .LVL13
     /tmp/ccxLz2gS.s:152    .text:00000000000000d0 .LVL14
     /tmp/ccxLz2gS.s:157    .text:00000000000000dc .LVL15
     /tmp/ccxLz2gS.s:162    .text:00000000000000e8 .LVL16
     /tmp/ccxLz2gS.s:238    .text:0000000000000140 .LVL25
     /tmp/ccxLz2gS.s:3267   .debug_str:0000000000000343 .LASF171
     /tmp/ccxLz2gS.s:3291   .debug_str:0000000000000415 .LASF172
     /tmp/ccxLz2gS.s:18     .text:0000000000000000 .LFB63
     /tmp/ccxLz2gS.s:67     .text:0000000000000060 .LFE63
     /tmp/ccxLz2gS.s:3126   .debug_loc:00000000000000f7 .LLST0
     /tmp/ccxLz2gS.s:39     .text:0000000000000028 .LVL2
     /tmp/ccxLz2gS.s:43     .text:0000000000000030 .LVL3
     /tmp/ccxLz2gS.s:48     .text:0000000000000040 .LVL4
     /tmp/ccxLz2gS.s:53     .text:000000000000004c .LVL5
     /tmp/ccxLz2gS.s:3509   .debug_str:0000000000000b06 .LASF173
     /tmp/ccxLz2gS.s:3331   .debug_str:000000000000055c .LASF174
     /tmp/ccxLz2gS.s:3259   .debug_str:000000000000031e .LASF175
     /tmp/ccxLz2gS.s:3169   .debug_str:0000000000000054 .LASF176
     /tmp/ccxLz2gS.s:3227   .debug_str:0000000000000206 .LASF197
     /tmp/ccxLz2gS.s:3355   .debug_str:0000000000000618 .LASF198
     /tmp/ccxLz2gS.s:3447   .debug_str:000000000000088d .LASF199
     /tmp/ccxLz2gS.s:3369   .debug_str:0000000000000672 .LASF177
     /tmp/ccxLz2gS.s:3541   .debug_str:0000000000000bea .LASF179
     /tmp/ccxLz2gS.s:3167   .debug_str:0000000000000035 .LASF178
     /tmp/ccxLz2gS.s:3391   .debug_str:000000000000070c .LASF180
     /tmp/ccxLz2gS.s:3249   .debug_str:00000000000002c1 .LASF181
     /tmp/ccxLz2gS.s:3527   .debug_str:0000000000000b7f .LASF182
     /tmp/ccxLz2gS.s:3323   .debug_str:000000000000050a .LASF183
     /tmp/ccxLz2gS.s:3557   .debug_str:0000000000000c59 .LASF184
     /tmp/ccxLz2gS.s:3497   .debug_str:0000000000000aa9 .LASF185
     /tmp/ccxLz2gS.s:3383   .debug_str:00000000000006e0 .LASF186
GAS LISTING /tmp/ccxLz2gS.s 			page 17


     /tmp/ccxLz2gS.s:3343   .debug_str:00000000000005c2 .LASF187
     /tmp/ccxLz2gS.s:3371   .debug_str:0000000000000685 .LASF188
     /tmp/ccxLz2gS.s:3327   .debug_str:0000000000000534 .LASF189
     /tmp/ccxLz2gS.s:3281   .debug_str:00000000000003d2 .LASF190
     /tmp/ccxLz2gS.s:101    .text:0000000000000084 .LVL8
     /tmp/ccxLz2gS.s:207    .text:0000000000000110 .LVL21
     /tmp/ccxLz2gS.s:115    .text:0000000000000090 .LVL10
     /tmp/ccxLz2gS.s:129    .text:0000000000000098 .LVL11
     /tmp/ccxLz2gS.s:172    .text:00000000000000ec .LVL17
     /tmp/ccxLz2gS.s:179    .text:00000000000000f0 .LVL18
     /tmp/ccxLz2gS.s:210    .text:0000000000000114 .LVL22
     /tmp/ccxLz2gS.s:22     .text:0000000000000000 .LVL0
     /tmp/ccxLz2gS.s:37     .text:0000000000000020 .LVL1
     /tmp/ccxLz2gS.s:62     .text:0000000000000058 .LVL6
     /tmp/ccxLz2gS.s:266    .debug_info:0000000000000000 .Ldebug_info0

UNDEFINED SYMBOLS
_Z11printStringPKc
_Z8userMainv
_Z10sem_signalP14SemDescription
_ZN3PCB17kernelThreadMakerEv
_ZN5Riscv4trapEv
_Z8sem_openPP14SemDescriptionj
_Z13thread_createPP3PCBPFvPvES2_
_Z8sem_waitP14SemDescription
_Z9sem_closeP14SemDescription
_ZdaPv
_ZN15MemoryAllocator8mem_freeEPv
