GAS LISTING /tmp/ccxLz2gS.s 			page 1


   1              		.file	"main.cpp"
   2              		.option pic
   3              		.option norelax
   4              		.text
   5              	.Ltext0:
   6              		.section	.rodata.str1.8,"aMS",@progbits,1
   7              		.align	3
   8              	.LC0:
   9 0000 75736572 		.string	"userMain started!\n"
   9      4D61696E 
   9      20737461 
   9      72746564 
   9      210A00
  10 0013 00000000 		.align	3
  10      00
  11              	.LC1:
  12 0018 75736572 		.string	"userMain finished!\n"
  12      4D61696E 
  12      2066696E 
  12      69736865 
  12      64210A00 
  13              		.text
  14              		.align	2
  15              		.globl	_Z11userWrapperPv
  17              	_Z11userWrapperPv:
  18              	.LFB63:
  19              		.file 1 "src/main.cpp"
   1:src/main.cpp  **** #include "../lib/hw.h"
   2:src/main.cpp  **** #include "../lib/console.h"
   3:src/main.cpp  **** #include "../h/MemoryAllocator.hpp"
   4:src/main.cpp  **** #include "../h/Riscv.hpp"
   5:src/main.cpp  **** #include "../h/syscall_c.h"
   6:src/main.cpp  **** #include "../h/syscall_cpp.hpp"
   7:src/main.cpp  **** #include "../h/PCB.hpp"
   8:src/main.cpp  **** 
   9:src/main.cpp  **** #include "../test/printing.hpp"
  10:src/main.cpp  **** #include "../h/userMain.hpp"
  11:src/main.cpp  **** 
  12:src/main.cpp  **** // \n
  13:src/main.cpp  **** 
  14:src/main.cpp  **** void userWrapper(void *sem) //mora wrapper posto je userMain bez argumenata
  15:src/main.cpp  **** {
  20              		.loc 1 15 1
  21              		.cfi_startproc
  22              	.LVL0:
  23 0000 130101FE 		addi	sp,sp,-32
  24              		.cfi_def_cfa_offset 32
  25 0004 233C1100 		sd	ra,24(sp)
  26 0008 23388100 		sd	s0,16(sp)
  27 000c 23349100 		sd	s1,8(sp)
  28              		.cfi_offset 1, -8
  29              		.cfi_offset 8, -16
  30              		.cfi_offset 9, -24
  31 0010 13040102 		addi	s0,sp,32
  32              		.cfi_def_cfa 8, 0
  33 0014 93040500 		mv	s1,a0
  16:src/main.cpp  ****     printString("userMain started!\n");
GAS LISTING /tmp/ccxLz2gS.s 			page 2


  34              		.loc 1 16 5
  35              		.loc 1 16 16 is_stmt 0
  36 0018 17050000 		lla	a0,.LC0
  36      13050500 
  37              	.LVL1:
  38 0020 97000000 		call	_Z11printStringPKc@plt
  38      E7800000 
  39              	.LVL2:
  17:src/main.cpp  ****     userMain();
  40              		.loc 1 17 5 is_stmt 1
  41              		.loc 1 17 13 is_stmt 0
  42 0028 97000000 		call	_Z8userMainv@plt
  42      E7800000 
  43              	.LVL3:
  18:src/main.cpp  ****     printString("userMain finished!\n");
  44              		.loc 1 18 5 is_stmt 1
  45              		.loc 1 18 16 is_stmt 0
  46 0030 17050000 		lla	a0,.LC1
  46      13050500 
  47 0038 97000000 		call	_Z11printStringPKc@plt
  47      E7800000 
  48              	.LVL4:
  19:src/main.cpp  ****     sem_signal((sem_t)sem);
  49              		.loc 1 19 5 is_stmt 1
  50              		.loc 1 19 15 is_stmt 0
  51 0040 13850400 		mv	a0,s1
  52 0044 97000000 		call	_Z10sem_signalP14SemDescription@plt
  52      E7800000 
  53              	.LVL5:
  20:src/main.cpp  **** }
  54              		.loc 1 20 1
  55 004c 83308101 		ld	ra,24(sp)
  56              		.cfi_restore 1
  57 0050 03340101 		ld	s0,16(sp)
  58              		.cfi_restore 8
  59              		.cfi_def_cfa 2, 32
  60 0054 83348100 		ld	s1,8(sp)
  61              		.cfi_restore 9
  62              	.LVL6:
  63 0058 13010102 		addi	sp,sp,32
  64              		.cfi_def_cfa_offset 0
  65 005c 67800000 		jr	ra
  66              		.cfi_endproc
  67              	.LFE63:
  69              		.section	.rodata.str1.8
  70 002c 00000000 		.align	3
  71              	.LC2:
  72 0030 4D61696E 		.string	"Main started!\n"
  72      20737461 
  72      72746564 
  72      210A00
  73 003f 00       		.align	3
  74              	.LC3:
  75 0040 4D61696E 		.string	"Main finished!\n"
  75      2066696E 
  75      69736865 
  75      64210A00 
GAS LISTING /tmp/ccxLz2gS.s 			page 3


  76              		.text
  77              		.align	2
  78              		.globl	main
  80              	main:
  81              	.LFB64:
  21:src/main.cpp  **** 
  22:src/main.cpp  **** 
  23:src/main.cpp  **** int main(){
  82              		.loc 1 23 11 is_stmt 1
  83              		.cfi_startproc
  84 0060 130101FD 		addi	sp,sp,-48
  85              		.cfi_def_cfa_offset 48
  86 0064 23341102 		sd	ra,40(sp)
  87 0068 23308102 		sd	s0,32(sp)
  88 006c 233C9100 		sd	s1,24(sp)
  89 0070 23382101 		sd	s2,16(sp)
  90              		.cfi_offset 1, -8
  91              		.cfi_offset 8, -16
  92              		.cfi_offset 9, -24
  93              		.cfi_offset 18, -32
  94 0074 13040103 		addi	s0,sp,48
  95              		.cfi_def_cfa 8, 0
  24:src/main.cpp  **** 
  25:src/main.cpp  ****     PCB* kernel = PCB::kernelThreadMaker();
  96              		.loc 1 25 5
  97              		.loc 1 25 41 is_stmt 0
  98 0078 97000000 		call	_ZN3PCB17kernelThreadMakerEv@plt
  98      E7800000 
  99              	.LVL7:
 100 0080 93040500 		mv	s1,a0
 101              	.LVL8:
  26:src/main.cpp  **** 
  27:src/main.cpp  ****     Riscv::w_stvec((uint64)&Riscv::trap);
 102              		.loc 1 27 5 is_stmt 1
 103              		.loc 1 27 19 is_stmt 0
 104 0084 97070000 		la	a5,_ZN5Riscv4trapEv
 104      83B70700 
 105              	.LVL9:
 106              	.LBB18:
 107              	.LBB19:
 108              		.file 2 "src/../h/Riscv.hpp"
   1:src/../h/Riscv.hpp **** //
   2:src/../h/Riscv.hpp **** // Created by os on 5/19/22.
   3:src/../h/Riscv.hpp **** //
   4:src/../h/Riscv.hpp **** 
   5:src/../h/Riscv.hpp **** #ifndef PROJECT_BASE_RISCV_HPP
   6:src/../h/Riscv.hpp **** #define PROJECT_BASE_RISCV_HPP
   7:src/../h/Riscv.hpp **** 
   8:src/../h/Riscv.hpp **** 
   9:src/../h/Riscv.hpp **** #include "../lib/hw.h"
  10:src/../h/Riscv.hpp **** #include "MemoryAllocator.hpp"
  11:src/../h/Riscv.hpp **** #include "PCB.hpp"
  12:src/../h/Riscv.hpp **** #include "SemDescription.hpp"
  13:src/../h/Riscv.hpp **** 
  14:src/../h/Riscv.hpp **** 
  15:src/../h/Riscv.hpp **** class Riscv{
  16:src/../h/Riscv.hpp **** public:
GAS LISTING /tmp/ccxLz2gS.s 			page 4


  17:src/../h/Riscv.hpp ****     static void trap();
  18:src/../h/Riscv.hpp **** 
  19:src/../h/Riscv.hpp ****     static void popSppSpie();
  20:src/../h/Riscv.hpp **** 
  21:src/../h/Riscv.hpp ****     static uint64 previousPrivilege(uint64 sstatus);
  22:src/../h/Riscv.hpp **** 
  23:src/../h/Riscv.hpp ****     static void prevPrivilege();
  24:src/../h/Riscv.hpp **** 
  25:src/../h/Riscv.hpp ****     static void  handleTrap();
  26:src/../h/Riscv.hpp **** 
  27:src/../h/Riscv.hpp ****     static uint64 r_scause();
  28:src/../h/Riscv.hpp **** 
  29:src/../h/Riscv.hpp ****     static void w_scause(uint64 scause);
  30:src/../h/Riscv.hpp **** 
  31:src/../h/Riscv.hpp ****     static uint64 r_sepc();
  32:src/../h/Riscv.hpp **** 
  33:src/../h/Riscv.hpp ****     static void w_sepc(uint64 sepc);
  34:src/../h/Riscv.hpp **** 
  35:src/../h/Riscv.hpp ****     static uint64 r_stvec();
  36:src/../h/Riscv.hpp **** 
  37:src/../h/Riscv.hpp ****     static void w_stvec(uint64 stvec);
  38:src/../h/Riscv.hpp **** 
  39:src/../h/Riscv.hpp ****     static uint64 r_stval();
  40:src/../h/Riscv.hpp **** 
  41:src/../h/Riscv.hpp ****     static void w_stval(uint64 stval);
  42:src/../h/Riscv.hpp **** 
  43:src/../h/Riscv.hpp ****     enum BitMaskSIP{
  44:src/../h/Riscv.hpp ****         SIP_SSIP = (1 << 1),
  45:src/../h/Riscv.hpp ****         SIP_STIP = (1 << 5),
  46:src/../h/Riscv.hpp ****         SIP_SEIP = (1 << 9)
  47:src/../h/Riscv.hpp ****     };
  48:src/../h/Riscv.hpp **** 
  49:src/../h/Riscv.hpp ****     static void ms_sip(uint64 mask); //mask
  50:src/../h/Riscv.hpp ****     static void mc_sip(uint64 mask); //clear
  51:src/../h/Riscv.hpp **** 
  52:src/../h/Riscv.hpp ****     static uint64 r_sip();
  53:src/../h/Riscv.hpp ****     static void w_sip(uint64 sip);
  54:src/../h/Riscv.hpp **** 
  55:src/../h/Riscv.hpp ****     enum BitMaskSSTATUS{
  56:src/../h/Riscv.hpp ****         SSTATUS_SIE = (1 << 1),
  57:src/../h/Riscv.hpp ****         SSTATUS_SPIE = (1 << 5),
  58:src/../h/Riscv.hpp ****         SSTATUS_SPP = (1 << 8)
  59:src/../h/Riscv.hpp ****     };
  60:src/../h/Riscv.hpp **** 
  61:src/../h/Riscv.hpp ****     static void ms_sstatus(uint64 mask); //mask
  62:src/../h/Riscv.hpp ****     static void mc_sstatus(uint64 mask); //clear
  63:src/../h/Riscv.hpp **** 
  64:src/../h/Riscv.hpp ****     static uint64 r_sstatus();
  65:src/../h/Riscv.hpp ****     static void w_sstatus(uint64 sstatus);
  66:src/../h/Riscv.hpp **** 
  67:src/../h/Riscv.hpp ****     static void moveArguments(uint64 *a){ //ucitavanje argumenata sistemskog poziva
  68:src/../h/Riscv.hpp ****         __asm__ volatile("ld %0, 80(s0)" : "=r"(a[0]));
  69:src/../h/Riscv.hpp ****         __asm__ volatile("ld %0, 88(s0)" : "=r"(a[1]));
  70:src/../h/Riscv.hpp ****         __asm__ volatile("ld %0, 96(s0)" : "=r"(a[2]));
  71:src/../h/Riscv.hpp ****         __asm__ volatile("ld %0, 104(s0)" : "=r"(a[3]));
  72:src/../h/Riscv.hpp ****         __asm__ volatile("ld %0, 112(s0)" : "=r"(a[4]));
  73:src/../h/Riscv.hpp ****     }
GAS LISTING /tmp/ccxLz2gS.s 			page 5


  74:src/../h/Riscv.hpp **** 
  75:src/../h/Riscv.hpp ****     static void w_a0(uint64 p);
  76:src/../h/Riscv.hpp **** };
  77:src/../h/Riscv.hpp **** 
  78:src/../h/Riscv.hpp **** 
  79:src/../h/Riscv.hpp **** //inline?
  80:src/../h/Riscv.hpp **** inline uint64 Riscv::r_scause()
  81:src/../h/Riscv.hpp **** {
  82:src/../h/Riscv.hpp ****     uint64 volatile scause;
  83:src/../h/Riscv.hpp ****     __asm__ volatile ("csrr %[scause], scause" : [scause] "=r"(scause));
  84:src/../h/Riscv.hpp ****     return scause;
  85:src/../h/Riscv.hpp **** }
  86:src/../h/Riscv.hpp **** 
  87:src/../h/Riscv.hpp **** inline void Riscv::w_scause(uint64 scause)
  88:src/../h/Riscv.hpp **** {
  89:src/../h/Riscv.hpp ****     __asm__ volatile ("csrw scause, %[scause]" : : [scause] "r"(scause));
  90:src/../h/Riscv.hpp **** }
  91:src/../h/Riscv.hpp **** 
  92:src/../h/Riscv.hpp **** inline uint64 Riscv::r_sepc()
  93:src/../h/Riscv.hpp **** {
  94:src/../h/Riscv.hpp ****     uint64 volatile sepc;
  95:src/../h/Riscv.hpp ****     __asm__ volatile ("csrr %[sepc], sepc" : [sepc] "=r"(sepc));
  96:src/../h/Riscv.hpp ****     return sepc;
  97:src/../h/Riscv.hpp **** }
  98:src/../h/Riscv.hpp **** 
  99:src/../h/Riscv.hpp **** inline void Riscv::w_sepc(uint64 sepc)
 100:src/../h/Riscv.hpp **** {
 101:src/../h/Riscv.hpp ****     __asm__ volatile ("csrw sepc, %[sepc]" : : [sepc] "r"(sepc));
 102:src/../h/Riscv.hpp **** }
 103:src/../h/Riscv.hpp **** 
 104:src/../h/Riscv.hpp **** inline uint64 Riscv::r_stvec()
 105:src/../h/Riscv.hpp **** {
 106:src/../h/Riscv.hpp ****     uint64 volatile stvec;
 107:src/../h/Riscv.hpp ****     __asm__ volatile ("csrr %[stvec], stvec" : [stvec] "=r"(stvec));
 108:src/../h/Riscv.hpp ****     return stvec;
 109:src/../h/Riscv.hpp **** }
 110:src/../h/Riscv.hpp **** 
 111:src/../h/Riscv.hpp **** inline void Riscv::w_stvec(uint64 stvec)
 112:src/../h/Riscv.hpp **** {
 113:src/../h/Riscv.hpp ****     __asm__ volatile ("csrw stvec, %[stvec]" : : [stvec] "r"(stvec));
 109              		.loc 2 113 5 is_stmt 1
 110              		.loc 2 113 69 is_stmt 0
 111              	#APP
 112              	# 113 "src/../h/Riscv.hpp" 1
 114              	}
 113              		csrw stvec, a5
 114              	# 0 "" 2
 115              	.LVL10:
 116              	#NO_APP
 117              	.LBE19:
 118              	.LBE18:
  28:src/main.cpp  ****     Riscv::ms_sstatus(Riscv::SSTATUS_SIE);
 119              		.loc 1 28 5 is_stmt 1
 120              	.LBB20:
 121              	.LBB21:
 115:src/../h/Riscv.hpp **** 
 116:src/../h/Riscv.hpp **** inline uint64 Riscv::r_stval()
GAS LISTING /tmp/ccxLz2gS.s 			page 6


 117:src/../h/Riscv.hpp **** {
 118:src/../h/Riscv.hpp ****     uint64 volatile stval;
 119:src/../h/Riscv.hpp ****     __asm__ volatile ("csrr %[stval], stval" : [stval] "=r"(stval));
 120:src/../h/Riscv.hpp ****     return stval;
 121:src/../h/Riscv.hpp **** }
 122:src/../h/Riscv.hpp **** 
 123:src/../h/Riscv.hpp **** inline void Riscv::w_stval(uint64 stval)
 124:src/../h/Riscv.hpp **** {
 125:src/../h/Riscv.hpp ****     __asm__ volatile ("csrw stval, %[stval]" : : [stval] "r"(stval));
 126:src/../h/Riscv.hpp **** }
 127:src/../h/Riscv.hpp **** 
 128:src/../h/Riscv.hpp **** inline void Riscv::ms_sip(uint64 mask)
 129:src/../h/Riscv.hpp **** {
 130:src/../h/Riscv.hpp ****     __asm__ volatile ("csrs sip, %[mask]" : : [mask] "r"(mask));
 131:src/../h/Riscv.hpp **** }
 132:src/../h/Riscv.hpp **** 
 133:src/../h/Riscv.hpp **** inline void Riscv::mc_sip(uint64 mask)
 134:src/../h/Riscv.hpp **** {
 135:src/../h/Riscv.hpp ****     __asm__ volatile ("csrc sip, %[mask]" : : [mask] "r"(mask));
 136:src/../h/Riscv.hpp **** }
 137:src/../h/Riscv.hpp **** 
 138:src/../h/Riscv.hpp **** inline uint64 Riscv::r_sip()
 139:src/../h/Riscv.hpp **** {
 140:src/../h/Riscv.hpp ****     uint64 volatile sip;
 141:src/../h/Riscv.hpp ****     __asm__ volatile ("csrr %[sip], sip" : [sip] "=r"(sip));
 142:src/../h/Riscv.hpp ****     return sip;
 143:src/../h/Riscv.hpp **** }
 144:src/../h/Riscv.hpp **** 
 145:src/../h/Riscv.hpp **** inline void Riscv::w_sip(uint64 sip)
 146:src/../h/Riscv.hpp **** {
 147:src/../h/Riscv.hpp ****     __asm__ volatile ("csrw sip, %[sip]" : : [sip] "r"(sip));
 148:src/../h/Riscv.hpp **** }
 149:src/../h/Riscv.hpp **** 
 150:src/../h/Riscv.hpp **** inline void Riscv::ms_sstatus(uint64 mask)
 151:src/../h/Riscv.hpp **** {
 152:src/../h/Riscv.hpp ****     __asm__ volatile ("csrs sstatus, %[mask]" : : [mask] "r"(mask));
 122              		.loc 2 152 5
 123              		.loc 2 152 68 is_stmt 0
 124 0090 13092000 		li	s2,2
 125              	#APP
 126              	# 152 "src/../h/Riscv.hpp" 1
 153              	}
 127              		csrs sstatus, s2
 128              	# 0 "" 2
 129              	.LVL11:
 130              	#NO_APP
 131              	.LBE21:
 132              	.LBE20:
  29:src/main.cpp  **** 
  30:src/main.cpp  ****     printString("Main started!\n");
 133              		.loc 1 30 5 is_stmt 1
 134              		.loc 1 30 16 is_stmt 0
 135 0098 17050000 		lla	a0,.LC2
 135      13050500 
 136 00a0 97000000 		call	_Z11printStringPKc@plt
 136      E7800000 
 137              	.LVL12:
GAS LISTING /tmp/ccxLz2gS.s 			page 7


  31:src/main.cpp  **** 
  32:src/main.cpp  ****     sem_t user_sem;
 138              		.loc 1 32 5 is_stmt 1
  33:src/main.cpp  ****     sem_open(&user_sem, 0);
 139              		.loc 1 33 5
 140              		.loc 1 33 13 is_stmt 0
 141 00a8 93050000 		li	a1,0
 142 00ac 130584FD 		addi	a0,s0,-40
 143 00b0 97000000 		call	_Z8sem_openPP14SemDescriptionj@plt
 143      E7800000 
 144              	.LVL13:
  34:src/main.cpp  **** 
  35:src/main.cpp  ****     thread_t user;
 145              		.loc 1 35 5 is_stmt 1
  36:src/main.cpp  ****     thread_create(&user, userWrapper, user_sem);
 146              		.loc 1 36 5
 147              		.loc 1 36 18 is_stmt 0
 148 00b8 033684FD 		ld	a2,-40(s0)
 149 00bc 97050000 		lla	a1,_Z11userWrapperPv
 149      93850500 
 150 00c4 130504FD 		addi	a0,s0,-48
 151 00c8 97000000 		call	_Z13thread_createPP3PCBPFvPvES2_@plt
 151      E7800000 
 152              	.LVL14:
  37:src/main.cpp  **** 
  38:src/main.cpp  ****     sem_wait(user_sem);//kad se javi signal prolazi i gasi semafor
 153              		.loc 1 38 5 is_stmt 1
 154              		.loc 1 38 13 is_stmt 0
 155 00d0 033584FD 		ld	a0,-40(s0)
 156 00d4 97000000 		call	_Z8sem_waitP14SemDescription@plt
 156      E7800000 
 157              	.LVL15:
  39:src/main.cpp  ****     sem_close(user_sem);
 158              		.loc 1 39 5 is_stmt 1
 159              		.loc 1 39 14 is_stmt 0
 160 00dc 033584FD 		ld	a0,-40(s0)
 161 00e0 97000000 		call	_Z9sem_closeP14SemDescription@plt
 161      E7800000 
 162              	.LVL16:
  40:src/main.cpp  **** 
  41:src/main.cpp  ****     Riscv::mc_sstatus(Riscv::SSTATUS_SIE);
 163              		.loc 1 41 5 is_stmt 1
 164              	.LBB22:
 165              	.LBB23:
 154:src/../h/Riscv.hpp **** 
 155:src/../h/Riscv.hpp **** inline void Riscv::mc_sstatus(uint64 mask)
 156:src/../h/Riscv.hpp **** {
 157:src/../h/Riscv.hpp ****     __asm__ volatile ("csrc sstatus, %[mask]" : : [mask] "r"(mask));
 166              		.loc 2 157 5
 167              		.loc 2 157 68 is_stmt 0
 168              	#APP
 169              	# 157 "src/../h/Riscv.hpp" 1
 158              	}
 170              		csrc sstatus, s2
 171              	# 0 "" 2
 172              	.LVL17:
 173              	#NO_APP
GAS LISTING /tmp/ccxLz2gS.s 			page 8


 174              	.LBE23:
 175              	.LBE22:
  42:src/main.cpp  ****     delete kernel;
 176              		.loc 1 42 5 is_stmt 1
 177              		.loc 1 42 18 is_stmt 0
 178 00ec 63800402 		beqz	s1,.L4
 179              	.LVL18:
 180              	.LBB24:
 181              	.LBB25:
 182              		.file 3 "src/../h/PCB.hpp"
   1:src/../h/PCB.hpp **** //
   2:src/../h/PCB.hpp **** // Created by os on 8/2/22.
   3:src/../h/PCB.hpp **** //
   4:src/../h/PCB.hpp **** 
   5:src/../h/PCB.hpp **** #ifndef PROJECT_BASE_PCB_HPP
   6:src/../h/PCB.hpp **** #define PROJECT_BASE_PCB_HPP
   7:src/../h/PCB.hpp **** 
   8:src/../h/PCB.hpp **** 
   9:src/../h/PCB.hpp **** #include "../lib/hw.h"
  10:src/../h/PCB.hpp **** #include "Scheduler.hpp"
  11:src/../h/PCB.hpp **** #include "syscall_c.h"
  12:src/../h/PCB.hpp **** 
  13:src/../h/PCB.hpp **** class PCB{
  14:src/../h/PCB.hpp **** 
  15:src/../h/PCB.hpp **** public:
  16:src/../h/PCB.hpp ****     bool waiting = false;
  17:src/../h/PCB.hpp **** 
  18:src/../h/PCB.hpp ****     sem_t sem = nullptr;
  19:src/../h/PCB.hpp **** 
  20:src/../h/PCB.hpp ****     ~PCB(){ delete []stack; }
 183              		.loc 3 20 13 is_stmt 1
 184              		.loc 3 20 22 is_stmt 0
 185 00f0 03B58401 		ld	a0,24(s1)
 186              		.loc 3 20 27
 187 00f4 63060500 		beqz	a0,.L5
 188              		.loc 3 20 22
 189 00f8 97000000 		call	_ZdaPv@plt
 189      E7800000 
 190              	.LVL19:
 191              	.L5:
 192              	.LBE25:
 193              	.LBE24:
 194              	.LBB26:
 195              	.LBB27:
  21:src/../h/PCB.hpp **** 
  22:src/../h/PCB.hpp ****     using Body = void(*)(void*);
  23:src/../h/PCB.hpp **** 
  24:src/../h/PCB.hpp ****     static PCB* createThread(Body body, void* arg, uint64* stack); //odmah zapocinje
  25:src/../h/PCB.hpp **** 
  26:src/../h/PCB.hpp ****     static PCB* makeOnlyThread(Body body, void* arg, uint64* stack); //napravi pa se posle moze pok
  27:src/../h/PCB.hpp **** 
  28:src/../h/PCB.hpp ****     static PCB* kernelThreadMaker();
  29:src/../h/PCB.hpp **** 
  30:src/../h/PCB.hpp ****     void* operator new(size_t size){ return MemoryAllocator::mem_alloc(size); }
  31:src/../h/PCB.hpp **** 
  32:src/../h/PCB.hpp ****     void operator delete(void* p){ MemoryAllocator::mem_free(p); }
 196              		.loc 3 32 36 is_stmt 1
GAS LISTING /tmp/ccxLz2gS.s 			page 9


 197              		.loc 3 32 61 is_stmt 0
 198 0100 13850400 		mv	a0,s1
 199 0104 97000000 		call	_ZN15MemoryAllocator8mem_freeEPv@plt
 199      E7800000 
 200              	.LVL20:
 201              	.L4:
 202              	.LBE27:
 203              	.LBE26:
  43:src/main.cpp  ****     delete user;
 204              		.loc 1 43 5 is_stmt 1
 205              		.loc 1 43 12 is_stmt 0
 206 010c 833404FD 		ld	s1,-48(s0)
 207              	.LVL21:
 208              		.loc 1 43 16
 209 0110 63800402 		beqz	s1,.L6
 210              	.LVL22:
 211              	.LBB28:
 212              	.LBB29:
  20:src/../h/PCB.hpp **** 
 213              		.loc 3 20 13 is_stmt 1
  20:src/../h/PCB.hpp **** 
 214              		.loc 3 20 22 is_stmt 0
 215 0114 03B58401 		ld	a0,24(s1)
  20:src/../h/PCB.hpp **** 
 216              		.loc 3 20 27
 217 0118 63060500 		beqz	a0,.L7
  20:src/../h/PCB.hpp **** 
 218              		.loc 3 20 22
 219 011c 97000000 		call	_ZdaPv@plt
 219      E7800000 
 220              	.LVL23:
 221              	.L7:
 222              	.LBE29:
 223              	.LBE28:
 224              	.LBB30:
 225              	.LBB31:
 226              		.loc 3 32 36 is_stmt 1
 227              		.loc 3 32 61 is_stmt 0
 228 0124 13850400 		mv	a0,s1
 229 0128 97000000 		call	_ZN15MemoryAllocator8mem_freeEPv@plt
 229      E7800000 
 230              	.LVL24:
 231              	.L6:
 232              	.LBE31:
 233              	.LBE30:
  44:src/main.cpp  ****     printString("Main finished!\n");
 234              		.loc 1 44 5 is_stmt 1
 235              		.loc 1 44 16 is_stmt 0
 236 0130 17050000 		lla	a0,.LC3
 236      13050500 
 237 0138 97000000 		call	_Z11printStringPKc@plt
 237      E7800000 
 238              	.LVL25:
  45:src/main.cpp  **** 
  46:src/main.cpp  ****     return 0;
 239              		.loc 1 46 5 is_stmt 1
  47:src/main.cpp  **** }
GAS LISTING /tmp/ccxLz2gS.s 			page 10


 240              		.loc 1 47 1 is_stmt 0
 241 0140 13050000 		li	a0,0
 242 0144 83308102 		ld	ra,40(sp)
 243              		.cfi_restore 1
 244 0148 03340102 		ld	s0,32(sp)
 245              		.cfi_restore 8
 246              		.cfi_def_cfa 2, 48
 247 014c 83348101 		ld	s1,24(sp)
 248              		.cfi_restore 9
 249 0150 03390101 		ld	s2,16(sp)
 250              		.cfi_restore 18
 251 0154 13010103 		addi	sp,sp,48
 252              		.cfi_def_cfa_offset 0
 253 0158 67800000 		jr	ra
 254              		.cfi_endproc
 255              	.LFE64:
 257              	.Letext0:
 258              		.file 4 "src/../lib/hw.h"
 259              		.file 5 "src/../h/MemoryAllocator.hpp"
 260              		.file 6 "src/../h/syscall_c.h"
 261              		.file 7 "src/../h/SemDescription.hpp"
 262              		.file 8 "src/../h/Queue.hpp"
 263              		.file 9 "src/../test/printing.hpp"
 264              		.file 10 "src/../h/userMain.hpp"
GAS LISTING /tmp/ccxLz2gS.s 			page 11

