GAS LISTING /tmp/ccT1g9Xv.s 			page 1


   1              		.file	"Queue.cpp"
   2              		.option pic
   3              		.option norelax
   4              		.text
   5              	.Ltext0:
   6              		.align	2
   7              		.globl	_ZN5Queue3putEP3PCB
   9              	_ZN5Queue3putEP3PCB:
  10              	.LFB34:
  11              		.file 1 "src/Queue.cpp"
   1:src/Queue.cpp **** //
   2:src/Queue.cpp **** // Created by os on 8/13/22.
   3:src/Queue.cpp **** //
   4:src/Queue.cpp **** #include "../h/Queue.hpp"
   5:src/Queue.cpp **** 
   6:src/Queue.cpp **** void Queue::put(PCB *data)
   7:src/Queue.cpp **** {
  12              		.loc 1 7 1
  13              		.cfi_startproc
  14              	.LVL0:
  15 0000 130101FE 		addi	sp,sp,-32
  16              		.cfi_def_cfa_offset 32
  17 0004 233C1100 		sd	ra,24(sp)
  18 0008 23388100 		sd	s0,16(sp)
  19 000c 23349100 		sd	s1,8(sp)
  20 0010 23302101 		sd	s2,0(sp)
  21              		.cfi_offset 1, -8
  22              		.cfi_offset 8, -16
  23              		.cfi_offset 9, -24
  24              		.cfi_offset 18, -32
  25 0014 13040102 		addi	s0,sp,32
  26              		.cfi_def_cfa 8, 0
  27 0018 93040500 		mv	s1,a0
  28 001c 13890500 		mv	s2,a1
   8:src/Queue.cpp ****     Elem* elem = new Elem(data, nullptr);
  29              		.loc 1 8 5
  30              	.LVL1:
  31              	.LBB9:
  32              	.LBB10:
  33              		.file 2 "src/../h/Queue.hpp"
   1:src/../h/Queue.hpp **** //
   2:src/../h/Queue.hpp **** // Created by os on 8/13/22.
   3:src/../h/Queue.hpp **** //
   4:src/../h/Queue.hpp **** 
   5:src/../h/Queue.hpp **** #ifndef PROJECT_BASE_QUEUE_HPP
   6:src/../h/Queue.hpp **** #define PROJECT_BASE_QUEUE_HPP
   7:src/../h/Queue.hpp **** 
   8:src/../h/Queue.hpp **** #include "PCB.hpp"
   9:src/../h/Queue.hpp **** 
  10:src/../h/Queue.hpp **** class Queue {
  11:src/../h/Queue.hpp **** public:
  12:src/../h/Queue.hpp ****     struct Elem
  13:src/../h/Queue.hpp ****     {
  14:src/../h/Queue.hpp ****         PCB *data;
  15:src/../h/Queue.hpp ****         Elem *next;
  16:src/../h/Queue.hpp **** 
  17:src/../h/Queue.hpp ****         Elem(PCB *data, Elem *next) : data(data), next(next) {}
GAS LISTING /tmp/ccT1g9Xv.s 			page 2


  18:src/../h/Queue.hpp **** 
  19:src/../h/Queue.hpp ****         void *operator new(size_t size) { return MemoryAllocator::mem_alloc(size); }
  34              		.loc 2 19 43
  35              		.loc 2 19 76 is_stmt 0
  36 0020 13050001 		li	a0,16
  37              	.LVL2:
  38 0024 97000000 		call	_ZN15MemoryAllocator9mem_allocEm@plt
  38      E7800000 
  39              	.LVL3:
  40              	.LBE10:
  41              	.LBE9:
  42              	.LBB11:
  43              	.LBB12:
  17:src/../h/Queue.hpp **** 
  44              		.loc 2 17 60
  45 002c 23302501 		sd	s2,0(a0)
  46 0030 23340500 		sd	zero,8(a0)
  47              	.LVL4:
  48              	.LBE12:
  49              	.LBE11:
   9:src/Queue.cpp ****     if(tail){
  50              		.loc 1 9 5 is_stmt 1
  51              		.loc 1 9 8 is_stmt 0
  52 0034 83B78400 		ld	a5,8(s1)
  53              		.loc 1 9 5
  54 0038 63880702 		beqz	a5,.L2
  10:src/Queue.cpp ****         tail->next = elem;
  55              		.loc 1 10 9 is_stmt 1
  56              		.loc 1 10 20 is_stmt 0
  57 003c 23B4A700 		sd	a0,8(a5)
  11:src/Queue.cpp ****         tail = elem;
  58              		.loc 1 11 9 is_stmt 1
  59              		.loc 1 11 14 is_stmt 0
  60 0040 23B4A400 		sd	a0,8(s1)
  61              	.L3:
  12:src/Queue.cpp ****     }else{
  13:src/Queue.cpp ****         head = tail = elem;
  14:src/Queue.cpp ****     }
  15:src/Queue.cpp ****     counter++;
  62              		.loc 1 15 5 is_stmt 1
  63 0044 83A70401 		lw	a5,16(s1)
  64              		.loc 1 15 12 is_stmt 0
  65 0048 9B871700 		addiw	a5,a5,1
  66 004c 23A8F400 		sw	a5,16(s1)
  16:src/Queue.cpp **** }
  67              		.loc 1 16 1
  68 0050 83308101 		ld	ra,24(sp)
  69              		.cfi_remember_state
  70              		.cfi_restore 1
  71 0054 03340101 		ld	s0,16(sp)
  72              		.cfi_restore 8
  73              		.cfi_def_cfa 2, 32
  74 0058 83348100 		ld	s1,8(sp)
  75              		.cfi_restore 9
  76              	.LVL5:
  77 005c 03390100 		ld	s2,0(sp)
  78              		.cfi_restore 18
GAS LISTING /tmp/ccT1g9Xv.s 			page 3


  79              	.LVL6:
  80 0060 13010102 		addi	sp,sp,32
  81              		.cfi_def_cfa_offset 0
  82 0064 67800000 		jr	ra
  83              	.LVL7:
  84              	.L2:
  85              		.cfi_restore_state
  13:src/Queue.cpp ****     }
  86              		.loc 1 13 9 is_stmt 1
  13:src/Queue.cpp ****     }
  87              		.loc 1 13 21 is_stmt 0
  88 0068 23B4A400 		sd	a0,8(s1)
  13:src/Queue.cpp ****     }
  89              		.loc 1 13 14
  90 006c 23B0A400 		sd	a0,0(s1)
  91 0070 6FF05FFD 		j	.L3
  92              		.cfi_endproc
  93              	.LFE34:
  95              		.align	2
  96              		.globl	_ZN5Queue3getEv
  98              	_ZN5Queue3getEv:
  99              	.LFB35:
  17:src/Queue.cpp **** 
  18:src/Queue.cpp **** PCB *Queue::get()
  19:src/Queue.cpp **** {
 100              		.loc 1 19 1 is_stmt 1
 101              		.cfi_startproc
 102              	.LVL8:
 103 0074 130101FE 		addi	sp,sp,-32
 104              		.cfi_def_cfa_offset 32
 105 0078 233C1100 		sd	ra,24(sp)
 106 007c 23388100 		sd	s0,16(sp)
 107 0080 23349100 		sd	s1,8(sp)
 108              		.cfi_offset 1, -8
 109              		.cfi_offset 8, -16
 110              		.cfi_offset 9, -24
 111 0084 13040102 		addi	s0,sp,32
 112              		.cfi_def_cfa 8, 0
 113 0088 93070500 		mv	a5,a0
  20:src/Queue.cpp ****     if(head == nullptr) return nullptr;
 114              		.loc 1 20 5
 115              		.loc 1 20 8 is_stmt 0
 116 008c 03350500 		ld	a0,0(a0)
 117              	.LVL9:
 118              		.loc 1 20 5
 119 0090 63040504 		beqz	a0,.L8
  21:src/Queue.cpp ****     Elem* del = head;
 120              		.loc 1 21 5 is_stmt 1
 121              	.LVL10:
  22:src/Queue.cpp ****     head = head->next;
 122              		.loc 1 22 5
 123              		.loc 1 22 18 is_stmt 0
 124 0094 03378500 		ld	a4,8(a0)
 125              		.loc 1 22 10
 126 0098 23B0E700 		sd	a4,0(a5)
  23:src/Queue.cpp ****     if(head == nullptr) tail = nullptr;
 127              		.loc 1 23 5 is_stmt 1
GAS LISTING /tmp/ccT1g9Xv.s 			page 4


 128 009c 630A0702 		beqz	a4,.L10
 129              	.L7:
  24:src/Queue.cpp ****     PCB* data = del->data;
 130              		.loc 1 24 5
 131              		.loc 1 24 10 is_stmt 0
 132 00a0 83340500 		ld	s1,0(a0)
 133              	.LVL11:
  25:src/Queue.cpp ****     counter--;
 134              		.loc 1 25 5 is_stmt 1
 135 00a4 03A70701 		lw	a4,16(a5)
 136              		.loc 1 25 12 is_stmt 0
 137 00a8 1B07F7FF 		addiw	a4,a4,-1
 138 00ac 23A8E700 		sw	a4,16(a5)
  26:src/Queue.cpp ****     delete del;
 139              		.loc 1 26 5 is_stmt 1
 140              	.LVL12:
 141              	.LBB13:
 142              	.LBB14:
  20:src/../h/Queue.hpp ****         void operator delete(void *ptr) { MemoryAllocator::mem_free(ptr); }
 143              		.loc 2 20 43
 144              		.loc 2 20 68 is_stmt 0
 145 00b0 97000000 		call	_ZN15MemoryAllocator8mem_freeEPv@plt
 145      E7800000 
 146              	.LVL13:
 147              	.LBE14:
 148              	.LBE13:
  27:src/Queue.cpp ****     return data;
 149              		.loc 1 27 5 is_stmt 1
 150              	.L5:
  28:src/Queue.cpp **** }
 151              		.loc 1 28 1 is_stmt 0
 152 00b8 13850400 		mv	a0,s1
 153 00bc 83308101 		ld	ra,24(sp)
 154              		.cfi_remember_state
 155              		.cfi_restore 1
 156 00c0 03340101 		ld	s0,16(sp)
 157              		.cfi_restore 8
 158              		.cfi_def_cfa 2, 32
 159 00c4 83348100 		ld	s1,8(sp)
 160              		.cfi_restore 9
 161 00c8 13010102 		addi	sp,sp,32
 162              		.cfi_def_cfa_offset 0
 163 00cc 67800000 		jr	ra
 164              	.LVL14:
 165              	.L10:
 166              		.cfi_restore_state
  23:src/Queue.cpp ****     PCB* data = del->data;
 167              		.loc 1 23 25 is_stmt 1 discriminator 1
  23:src/Queue.cpp ****     PCB* data = del->data;
 168              		.loc 1 23 30 is_stmt 0 discriminator 1
 169 00d0 23B40700 		sd	zero,8(a5)
 170 00d4 6FF0DFFC 		j	.L7
 171              	.LVL15:
 172              	.L8:
  20:src/Queue.cpp ****     Elem* del = head;
 173              		.loc 1 20 32
 174 00d8 93040500 		mv	s1,a0
GAS LISTING /tmp/ccT1g9Xv.s 			page 5


 175 00dc 6FF0DFFD 		j	.L5
 176              		.cfi_endproc
 177              	.LFE35:
 179              	.Letext0:
 180              		.file 3 "src/../h/../lib/hw.h"
 181              		.file 4 "src/../h/MemoryAllocator.hpp"
 182              		.file 5 "src/../h/PCB.hpp"
 183              		.file 6 "src/../h/syscall_c.h"
GAS LISTING /tmp/ccT1g9Xv.s 			page 6


DEFINED SYMBOLS
                            *ABS*:0000000000000000 Queue.cpp
     /tmp/ccT1g9Xv.s:9      .text:0000000000000000 _ZN5Queue3putEP3PCB
     /tmp/ccT1g9Xv.s:13     .text:0000000000000000 .L0 
     /tmp/ccT1g9Xv.s:15     .text:0000000000000000 .L0 
     /tmp/ccT1g9Xv.s:16     .text:0000000000000004 .L0 
     /tmp/ccT1g9Xv.s:21     .text:0000000000000014 .L0 
     /tmp/ccT1g9Xv.s:22     .text:0000000000000014 .L0 
     /tmp/ccT1g9Xv.s:23     .text:0000000000000014 .L0 
     /tmp/ccT1g9Xv.s:24     .text:0000000000000014 .L0 
     /tmp/ccT1g9Xv.s:26     .text:0000000000000018 .L0 
     /tmp/ccT1g9Xv.s:34     .text:0000000000000020 .L0 
     /tmp/ccT1g9Xv.s:35     .text:0000000000000020 .L0 
     /tmp/ccT1g9Xv.s:36     .text:0000000000000020 .L0 
     /tmp/ccT1g9Xv.s:45     .text:000000000000002c .L0 
     /tmp/ccT1g9Xv.s:51     .text:0000000000000034 .L0 
     /tmp/ccT1g9Xv.s:52     .text:0000000000000034 .L0 
     /tmp/ccT1g9Xv.s:54     .text:0000000000000038 .L0 
     /tmp/ccT1g9Xv.s:56     .text:000000000000003c .L0 
     /tmp/ccT1g9Xv.s:57     .text:000000000000003c .L0 
     /tmp/ccT1g9Xv.s:59     .text:0000000000000040 .L0 
     /tmp/ccT1g9Xv.s:60     .text:0000000000000040 .L0 
     /tmp/ccT1g9Xv.s:63     .text:0000000000000044 .L0 
     /tmp/ccT1g9Xv.s:65     .text:0000000000000048 .L0 
     /tmp/ccT1g9Xv.s:68     .text:0000000000000050 .L0 
     /tmp/ccT1g9Xv.s:69     .text:0000000000000054 .L0 
     /tmp/ccT1g9Xv.s:70     .text:0000000000000054 .L0 
     /tmp/ccT1g9Xv.s:72     .text:0000000000000058 .L0 
     /tmp/ccT1g9Xv.s:73     .text:0000000000000058 .L0 
     /tmp/ccT1g9Xv.s:75     .text:000000000000005c .L0 
     /tmp/ccT1g9Xv.s:78     .text:0000000000000060 .L0 
     /tmp/ccT1g9Xv.s:81     .text:0000000000000064 .L0 
     /tmp/ccT1g9Xv.s:85     .text:0000000000000068 .L0 
     /tmp/ccT1g9Xv.s:87     .text:0000000000000068 .L0 
     /tmp/ccT1g9Xv.s:88     .text:0000000000000068 .L0 
     /tmp/ccT1g9Xv.s:90     .text:000000000000006c .L0 
     /tmp/ccT1g9Xv.s:92     .text:0000000000000074 .L0 
     /tmp/ccT1g9Xv.s:98     .text:0000000000000074 _ZN5Queue3getEv
     /tmp/ccT1g9Xv.s:101    .text:0000000000000074 .L0 
     /tmp/ccT1g9Xv.s:103    .text:0000000000000074 .L0 
     /tmp/ccT1g9Xv.s:104    .text:0000000000000078 .L0 
     /tmp/ccT1g9Xv.s:108    .text:0000000000000084 .L0 
     /tmp/ccT1g9Xv.s:109    .text:0000000000000084 .L0 
     /tmp/ccT1g9Xv.s:110    .text:0000000000000084 .L0 
     /tmp/ccT1g9Xv.s:112    .text:0000000000000088 .L0 
     /tmp/ccT1g9Xv.s:115    .text:000000000000008c .L0 
     /tmp/ccT1g9Xv.s:116    .text:000000000000008c .L0 
     /tmp/ccT1g9Xv.s:119    .text:0000000000000090 .L0 
     /tmp/ccT1g9Xv.s:122    .text:0000000000000094 .L0 
     /tmp/ccT1g9Xv.s:123    .text:0000000000000094 .L0 
     /tmp/ccT1g9Xv.s:124    .text:0000000000000094 .L0 
     /tmp/ccT1g9Xv.s:126    .text:0000000000000098 .L0 
     /tmp/ccT1g9Xv.s:128    .text:000000000000009c .L0 
     /tmp/ccT1g9Xv.s:131    .text:00000000000000a0 .L0 
     /tmp/ccT1g9Xv.s:132    .text:00000000000000a0 .L0 
     /tmp/ccT1g9Xv.s:135    .text:00000000000000a4 .L0 
     /tmp/ccT1g9Xv.s:137    .text:00000000000000a8 .L0 
GAS LISTING /tmp/ccT1g9Xv.s 			page 7


     /tmp/ccT1g9Xv.s:143    .text:00000000000000b0 .L0 
     /tmp/ccT1g9Xv.s:144    .text:00000000000000b0 .L0 
     /tmp/ccT1g9Xv.s:145    .text:00000000000000b0 .L0 
     /tmp/ccT1g9Xv.s:151    .text:00000000000000b8 .L0 
     /tmp/ccT1g9Xv.s:152    .text:00000000000000b8 .L0 
     /tmp/ccT1g9Xv.s:154    .text:00000000000000c0 .L0 
     /tmp/ccT1g9Xv.s:155    .text:00000000000000c0 .L0 
     /tmp/ccT1g9Xv.s:157    .text:00000000000000c4 .L0 
     /tmp/ccT1g9Xv.s:158    .text:00000000000000c4 .L0 
     /tmp/ccT1g9Xv.s:160    .text:00000000000000c8 .L0 
     /tmp/ccT1g9Xv.s:162    .text:00000000000000cc .L0 
     /tmp/ccT1g9Xv.s:166    .text:00000000000000d0 .L0 
     /tmp/ccT1g9Xv.s:168    .text:00000000000000d0 .L0 
     /tmp/ccT1g9Xv.s:169    .text:00000000000000d0 .L0 
     /tmp/ccT1g9Xv.s:174    .text:00000000000000d8 .L0 
     /tmp/ccT1g9Xv.s:176    .text:00000000000000e0 .L0 
     /tmp/ccT1g9Xv.s:184    .text:00000000000000e0 .L0 
     /tmp/ccT1g9Xv.s:84     .text:0000000000000068 .L2
     /tmp/ccT1g9Xv.s:61     .text:0000000000000044 .L3
     /tmp/ccT1g9Xv.s:172    .text:00000000000000d8 .L8
     /tmp/ccT1g9Xv.s:165    .text:00000000000000d0 .L10
     /tmp/ccT1g9Xv.s:129    .text:00000000000000a0 .L7
     /tmp/ccT1g9Xv.s:150    .text:00000000000000b8 .L5
     /tmp/ccT1g9Xv.s:1160   .debug_abbrev:0000000000000000 .Ldebug_abbrev0
     /tmp/ccT1g9Xv.s:2560   .debug_str:0000000000000513 .LASF96
     /tmp/ccT1g9Xv.s:2574   .debug_str:000000000000062d .LASF97
     /tmp/ccT1g9Xv.s:2434   .debug_str:0000000000000166 .LASF98
     /tmp/ccT1g9Xv.s:5      .text:0000000000000000 .Ltext0
     /tmp/ccT1g9Xv.s:179    .text:00000000000000e0 .Letext0
     /tmp/ccT1g9Xv.s:2384   .debug_line:0000000000000000 .Ldebug_line0
     /tmp/ccT1g9Xv.s:2490   .debug_str:0000000000000300 .LASF0
     /tmp/ccT1g9Xv.s:2506   .debug_str:0000000000000372 .LASF1
     /tmp/ccT1g9Xv.s:2480   .debug_str:00000000000002c7 .LASF2
     /tmp/ccT1g9Xv.s:2450   .debug_str:0000000000000209 .LASF4
     /tmp/ccT1g9Xv.s:2542   .debug_str:0000000000000484 .LASF3
     /tmp/ccT1g9Xv.s:2400   .debug_str:0000000000000074 .LASF5
     /tmp/ccT1g9Xv.s:2508   .debug_str:0000000000000385 .LASF6
     /tmp/ccT1g9Xv.s:2488   .debug_str:00000000000002ed .LASF7
     /tmp/ccT1g9Xv.s:2568   .debug_str:00000000000005f4 .LASF8
     /tmp/ccT1g9Xv.s:2442   .debug_str:00000000000001d2 .LASF9
     /tmp/ccT1g9Xv.s:2520   .debug_str:00000000000003e2 .LASF10
     /tmp/ccT1g9Xv.s:2564   .debug_str:00000000000005df .LASF11
     /tmp/ccT1g9Xv.s:2402   .debug_str:000000000000007b .LASF12
     /tmp/ccT1g9Xv.s:2388   .debug_str:000000000000000c .LASF13
     /tmp/ccT1g9Xv.s:2410   .debug_str:00000000000000cc .LASF14
     /tmp/ccT1g9Xv.s:2538   .debug_str:0000000000000469 .LASF15
     /tmp/ccT1g9Xv.s:2414   .debug_str:00000000000000dd .LASF16
     /tmp/ccT1g9Xv.s:2462   .debug_str:0000000000000261 .LASF33
     /tmp/ccT1g9Xv.s:2558   .debug_str:000000000000050e .LASF17
     /tmp/ccT1g9Xv.s:2590   .debug_str:0000000000000680 .LASF18
     /tmp/ccT1g9Xv.s:2584   .debug_str:0000000000000668 .LASF19
     /tmp/ccT1g9Xv.s:2476   .debug_str:00000000000002ac .LASF27
     /tmp/ccT1g9Xv.s:2592   .debug_str:0000000000000685 .LASF20
     /tmp/ccT1g9Xv.s:2452   .debug_str:0000000000000210 .LASF22
     /tmp/ccT1g9Xv.s:2458   .debug_str:0000000000000249 .LASF21
     /tmp/ccT1g9Xv.s:2530   .debug_str:0000000000000420 .LASF23
     /tmp/ccT1g9Xv.s:2386   .debug_str:0000000000000000 .LASF24
GAS LISTING /tmp/ccT1g9Xv.s 			page 8


     /tmp/ccT1g9Xv.s:2588   .debug_str:000000000000067a .LASF25
     /tmp/ccT1g9Xv.s:2546   .debug_str:00000000000004a7 .LASF36
     /tmp/ccT1g9Xv.s:2556   .debug_str:00000000000004ed .LASF38
     /tmp/ccT1g9Xv.s:2524   .debug_str:00000000000003f7 .LASF46
     /tmp/ccT1g9Xv.s:2440   .debug_str:00000000000001b1 .LASF48
     /tmp/ccT1g9Xv.s:2432   .debug_str:0000000000000161 .LASF26
     /tmp/ccT1g9Xv.s:2406   .debug_str:0000000000000097 .LASF99
     /tmp/ccT1g9Xv.s:2514   .debug_str:00000000000003bb .LASF28
     /tmp/ccT1g9Xv.s:2518   .debug_str:00000000000003dc .LASF29
     /tmp/ccT1g9Xv.s:2550   .debug_str:00000000000004c1 .LASF30
     /tmp/ccT1g9Xv.s:2562   .debug_str:00000000000005d7 .LASF31
     /tmp/ccT1g9Xv.s:2472   .debug_str:000000000000028d .LASF32
     /tmp/ccT1g9Xv.s:2394   .debug_str:0000000000000050 .LASF34
     /tmp/ccT1g9Xv.s:2580   .debug_str:0000000000000653 .LASF35
     /tmp/ccT1g9Xv.s:2536   .debug_str:0000000000000464 .LASF37
     /tmp/ccT1g9Xv.s:2404   .debug_str:000000000000008b .LASF39
     /tmp/ccT1g9Xv.s:2460   .debug_str:0000000000000254 .LASF40
     /tmp/ccT1g9Xv.s:2594   .debug_str:000000000000068d .LASF41
     /tmp/ccT1g9Xv.s:2532   .debug_str:0000000000000450 .LASF100
     /tmp/ccT1g9Xv.s:2500   .debug_str:000000000000034c .LASF42
     /tmp/ccT1g9Xv.s:2424   .debug_str:0000000000000123 .LASF43
     /tmp/ccT1g9Xv.s:2496   .debug_str:0000000000000333 .LASF60
     /tmp/ccT1g9Xv.s:2494   .debug_str:0000000000000316 .LASF62
     /tmp/ccT1g9Xv.s:2582   .debug_str:000000000000065b .LASF44
     /tmp/ccT1g9Xv.s:2510   .debug_str:0000000000000398 .LASF45
     /tmp/ccT1g9Xv.s:2422   .debug_str:0000000000000113 .LASF47
     /tmp/ccT1g9Xv.s:2586   .debug_str:000000000000066d .LASF49
     /tmp/ccT1g9Xv.s:2486   .debug_str:00000000000002e2 .LASF52
     /tmp/ccT1g9Xv.s:2512   .debug_str:00000000000003a4 .LASF54
     /tmp/ccT1g9Xv.s:2578   .debug_str:0000000000000649 .LASF50
     /tmp/ccT1g9Xv.s:2392   .debug_str:000000000000002b .LASF51
     /tmp/ccT1g9Xv.s:2552   .debug_str:00000000000004ca .LASF53
     /tmp/ccT1g9Xv.s:2438   .debug_str:0000000000000198 .LASF55
     /tmp/ccT1g9Xv.s:2428   .debug_str:000000000000014d .LASF56
     /tmp/ccT1g9Xv.s:2416   .debug_str:00000000000000f3 .LASF57
     /tmp/ccT1g9Xv.s:2504   .debug_str:000000000000036c .LASF58
     /tmp/ccT1g9Xv.s:2448   .debug_str:00000000000001f9 .LASF59
     /tmp/ccT1g9Xv.s:2468   .debug_str:0000000000000283 .LASF61
     /tmp/ccT1g9Xv.s:2390   .debug_str:000000000000001c .LASF63
     /tmp/ccT1g9Xv.s:2522   .debug_str:00000000000003f1 .LASF64
     /tmp/ccT1g9Xv.s:2502   .debug_str:000000000000035b .LASF65
     /tmp/ccT1g9Xv.s:2544   .debug_str:0000000000000496 .LASF66
     /tmp/ccT1g9Xv.s:2454   .debug_str:000000000000023c .LASF67
     /tmp/ccT1g9Xv.s:2446   .debug_str:00000000000001f3 .LASF68
     /tmp/ccT1g9Xv.s:2456   .debug_str:0000000000000241 .LASF69
     /tmp/ccT1g9Xv.s:2498   .debug_str:0000000000000345 .LASF70
     /tmp/ccT1g9Xv.s:2398   .debug_str:000000000000006a .LASF71
     /tmp/ccT1g9Xv.s:2464   .debug_str:000000000000026a .LASF72
     /tmp/ccT1g9Xv.s:2478   .debug_str:00000000000002bc .LASF73
     /tmp/ccT1g9Xv.s:2492   .debug_str:000000000000030d .LASF76
     /tmp/ccT1g9Xv.s:2444   .debug_str:00000000000001e0 .LASF78
     /tmp/ccT1g9Xv.s:2576   .debug_str:000000000000063b .LASF74
     /tmp/ccT1g9Xv.s:2408   .debug_str:00000000000000a4 .LASF75
     /tmp/ccT1g9Xv.s:2466   .debug_str:0000000000000275 .LASF77
     /tmp/ccT1g9Xv.s:2516   .debug_str:00000000000003c3 .LASF79
     /tmp/ccT1g9Xv.s:2554   .debug_str:00000000000004d7 .LASF91
     /tmp/ccT1g9Xv.s:2430   .debug_str:0000000000000155 .LASF101
GAS LISTING /tmp/ccT1g9Xv.s 			page 9


     /tmp/ccT1g9Xv.s:2426   .debug_str:0000000000000147 .LASF80
     /tmp/ccT1g9Xv.s:2534   .debug_str:0000000000000455 .LASF102
     /tmp/ccT1g9Xv.s:2566   .debug_str:00000000000005ee .LASF81
     /tmp/ccT1g9Xv.s:2470   .debug_str:0000000000000288 .LASF83
     /tmp/ccT1g9Xv.s:2412   .debug_str:00000000000000d8 .LASF82
     /tmp/ccT1g9Xv.s:2526   .debug_str:0000000000000400 .LASF84
     /tmp/ccT1g9Xv.s:2474   .debug_str:0000000000000299 .LASF85
     /tmp/ccT1g9Xv.s:2420   .debug_str:00000000000000ff .LASF103
     /tmp/ccT1g9Xv.s:2418   .debug_str:00000000000000fa .LASF86
     /tmp/ccT1g9Xv.s:2484   .debug_str:00000000000002dd .LASF87
     /tmp/ccT1g9Xv.s:2482   .debug_str:00000000000002d5 .LASF88
     /tmp/ccT1g9Xv.s:2570   .debug_str:0000000000000604 .LASF89
     /tmp/ccT1g9Xv.s:2396   .debug_str:0000000000000058 .LASF90
     /tmp/ccT1g9Xv.s:2436   .debug_str:0000000000000184 .LASF92
     /tmp/ccT1g9Xv.s:2548   .debug_str:00000000000004b1 .LASF93
     /tmp/ccT1g9Xv.s:99     .text:0000000000000074 .LFB35
     /tmp/ccT1g9Xv.s:177    .text:00000000000000e0 .LFE35
     /tmp/ccT1g9Xv.s:2528   .debug_str:000000000000041b .LASF94
     /tmp/ccT1g9Xv.s:2250   .debug_loc:0000000000000000 .LLST6
     /tmp/ccT1g9Xv.s:2272   .debug_loc:000000000000005f .LLST7
     /tmp/ccT1g9Xv.s:2283   .debug_loc:0000000000000095 .LLST8
     /tmp/ccT1g9Xv.s:141    .text:00000000000000b0 .LBB13
     /tmp/ccT1g9Xv.s:148    .text:00000000000000b8 .LBE13
     /tmp/ccT1g9Xv.s:2290   .debug_loc:00000000000000b8 .LLST9
     /tmp/ccT1g9Xv.s:146    .text:00000000000000b8 .LVL13
     /tmp/ccT1g9Xv.s:10     .text:0000000000000000 .LFB34
     /tmp/ccT1g9Xv.s:93     .text:0000000000000074 .LFE34
     /tmp/ccT1g9Xv.s:2297   .debug_loc:00000000000000db .LLST0
     /tmp/ccT1g9Xv.s:2319   .debug_loc:000000000000013a .LLST1
     /tmp/ccT1g9Xv.s:2540   .debug_str:000000000000047f .LASF95
     /tmp/ccT1g9Xv.s:31     .text:0000000000000020 .LBB9
     /tmp/ccT1g9Xv.s:41     .text:000000000000002c .LBE9
     /tmp/ccT1g9Xv.s:2341   .debug_loc:0000000000000199 .LLST2
     /tmp/ccT1g9Xv.s:39     .text:000000000000002c .LVL3
     /tmp/ccT1g9Xv.s:42     .text:000000000000002c .LBB11
     /tmp/ccT1g9Xv.s:49     .text:0000000000000034 .LBE11
     /tmp/ccT1g9Xv.s:2349   .debug_loc:00000000000001bd .LLST3
     /tmp/ccT1g9Xv.s:2357   .debug_loc:00000000000001e1 .LLST4
     /tmp/ccT1g9Xv.s:2364   .debug_loc:0000000000000204 .LLST5
     /tmp/ccT1g9Xv.s:2572   .debug_str:0000000000000612 .LASF104
     /tmp/ccT1g9Xv.s:102    .text:0000000000000074 .LVL8
     /tmp/ccT1g9Xv.s:117    .text:0000000000000090 .LVL9
     /tmp/ccT1g9Xv.s:164    .text:00000000000000d0 .LVL14
     /tmp/ccT1g9Xv.s:121    .text:0000000000000094 .LVL10
     /tmp/ccT1g9Xv.s:171    .text:00000000000000d8 .LVL15
     /tmp/ccT1g9Xv.s:133    .text:00000000000000a4 .LVL11
     /tmp/ccT1g9Xv.s:140    .text:00000000000000b0 .LVL12
     /tmp/ccT1g9Xv.s:14     .text:0000000000000000 .LVL0
     /tmp/ccT1g9Xv.s:37     .text:0000000000000024 .LVL2
     /tmp/ccT1g9Xv.s:76     .text:000000000000005c .LVL5
     /tmp/ccT1g9Xv.s:83     .text:0000000000000068 .LVL7
     /tmp/ccT1g9Xv.s:79     .text:0000000000000060 .LVL6
     /tmp/ccT1g9Xv.s:30     .text:0000000000000020 .LVL1
     /tmp/ccT1g9Xv.s:47     .text:0000000000000034 .LVL4
     /tmp/ccT1g9Xv.s:185    .debug_info:0000000000000000 .Ldebug_info0

UNDEFINED SYMBOLS
GAS LISTING /tmp/ccT1g9Xv.s 			page 10


_ZN15MemoryAllocator9mem_allocEm
_ZN15MemoryAllocator8mem_freeEPv
