GAS LISTING /tmp/ccT1g9Xv.s 			page 1


   1              		.file	"Queue.cpp"
   2              		.option pic
   3              		.option norelax
   4              		.text
   5              	.Ltext0:
   6              		.align	2
   7              		.globl	_ZN5Queue3putEP3PCB
   9              	_ZN5Queue3putEP3PCB:
  10              	.LFB34:
  11              		.file 1 "src/Queue.cpp"
   1:src/Queue.cpp **** //
   2:src/Queue.cpp **** // Created by os on 8/13/22.
   3:src/Queue.cpp **** //
   4:src/Queue.cpp **** #include "../h/Queue.hpp"
   5:src/Queue.cpp **** 
   6:src/Queue.cpp **** void Queue::put(PCB *data)
   7:src/Queue.cpp **** {
  12              		.loc 1 7 1
  13              		.cfi_startproc
  14              	.LVL0:
  15 0000 130101FE 		addi	sp,sp,-32
  16              		.cfi_def_cfa_offset 32
  17 0004 233C1100 		sd	ra,24(sp)
  18 0008 23388100 		sd	s0,16(sp)
  19 000c 23349100 		sd	s1,8(sp)
  20 0010 23302101 		sd	s2,0(sp)
  21              		.cfi_offset 1, -8
  22              		.cfi_offset 8, -16
  23              		.cfi_offset 9, -24
  24              		.cfi_offset 18, -32
  25 0014 13040102 		addi	s0,sp,32
  26              		.cfi_def_cfa 8, 0
  27 0018 93040500 		mv	s1,a0
  28 001c 13890500 		mv	s2,a1
   8:src/Queue.cpp ****     Elem* elem = new Elem(data, nullptr);
  29              		.loc 1 8 5
  30              	.LVL1:
  31              	.LBB9:
  32              	.LBB10:
  33              		.file 2 "src/../h/Queue.hpp"
   1:src/../h/Queue.hpp **** //
   2:src/../h/Queue.hpp **** // Created by os on 8/13/22.
   3:src/../h/Queue.hpp **** //
   4:src/../h/Queue.hpp **** 
   5:src/../h/Queue.hpp **** #ifndef PROJECT_BASE_QUEUE_HPP
   6:src/../h/Queue.hpp **** #define PROJECT_BASE_QUEUE_HPP
   7:src/../h/Queue.hpp **** 
   8:src/../h/Queue.hpp **** #include "PCB.hpp"
   9:src/../h/Queue.hpp **** 
  10:src/../h/Queue.hpp **** class Queue {
  11:src/../h/Queue.hpp **** public:
  12:src/../h/Queue.hpp ****     struct Elem
  13:src/../h/Queue.hpp ****     {
  14:src/../h/Queue.hpp ****         PCB *data;
  15:src/../h/Queue.hpp ****         Elem *next;
  16:src/../h/Queue.hpp **** 
  17:src/../h/Queue.hpp ****         Elem(PCB *data, Elem *next) : data(data), next(next) {}
GAS LISTING /tmp/ccT1g9Xv.s 			page 2


  18:src/../h/Queue.hpp **** 
  19:src/../h/Queue.hpp ****         void *operator new(size_t size) { return MemoryAllocator::mem_alloc(size); }
  34              		.loc 2 19 43
  35              		.loc 2 19 76 is_stmt 0
  36 0020 13050001 		li	a0,16
  37              	.LVL2:
  38 0024 97000000 		call	_ZN15MemoryAllocator9mem_allocEm@plt
  38      E7800000 
  39              	.LVL3:
  40              	.LBE10:
  41              	.LBE9:
  42              	.LBB11:
  43              	.LBB12:
  17:src/../h/Queue.hpp **** 
  44              		.loc 2 17 60
  45 002c 23302501 		sd	s2,0(a0)
  46 0030 23340500 		sd	zero,8(a0)
  47              	.LVL4:
  48              	.LBE12:
  49              	.LBE11:
   9:src/Queue.cpp ****     if(tail){
  50              		.loc 1 9 5 is_stmt 1
  51              		.loc 1 9 8 is_stmt 0
  52 0034 83B78400 		ld	a5,8(s1)
  53              		.loc 1 9 5
  54 0038 63880702 		beqz	a5,.L2
  10:src/Queue.cpp ****         tail->next = elem;
  55              		.loc 1 10 9 is_stmt 1
  56              		.loc 1 10 20 is_stmt 0
  57 003c 23B4A700 		sd	a0,8(a5)
  11:src/Queue.cpp ****         tail = elem;
  58              		.loc 1 11 9 is_stmt 1
  59              		.loc 1 11 14 is_stmt 0
  60 0040 23B4A400 		sd	a0,8(s1)
  61              	.L3:
  12:src/Queue.cpp ****     }else{
  13:src/Queue.cpp ****         head = tail = elem;
  14:src/Queue.cpp ****     }
  15:src/Queue.cpp ****     counter++;
  62              		.loc 1 15 5 is_stmt 1
  63 0044 83A70401 		lw	a5,16(s1)
  64              		.loc 1 15 12 is_stmt 0
  65 0048 9B871700 		addiw	a5,a5,1
  66 004c 23A8F400 		sw	a5,16(s1)
  16:src/Queue.cpp **** }
  67              		.loc 1 16 1
  68 0050 83308101 		ld	ra,24(sp)
  69              		.cfi_remember_state
  70              		.cfi_restore 1
  71 0054 03340101 		ld	s0,16(sp)
  72              		.cfi_restore 8
  73              		.cfi_def_cfa 2, 32
  74 0058 83348100 		ld	s1,8(sp)
  75              		.cfi_restore 9
  76              	.LVL5:
  77 005c 03390100 		ld	s2,0(sp)
  78              		.cfi_restore 18
GAS LISTING /tmp/ccT1g9Xv.s 			page 3


  79              	.LVL6:
  80 0060 13010102 		addi	sp,sp,32
  81              		.cfi_def_cfa_offset 0
  82 0064 67800000 		jr	ra
  83              	.LVL7:
  84              	.L2:
  85              		.cfi_restore_state
  13:src/Queue.cpp ****     }
  86              		.loc 1 13 9 is_stmt 1
  13:src/Queue.cpp ****     }
  87              		.loc 1 13 21 is_stmt 0
  88 0068 23B4A400 		sd	a0,8(s1)
  13:src/Queue.cpp ****     }
  89              		.loc 1 13 14
  90 006c 23B0A400 		sd	a0,0(s1)
  91 0070 6FF05FFD 		j	.L3
  92              		.cfi_endproc
  93              	.LFE34:
  95              		.align	2
  96              		.globl	_ZN5Queue3getEv
  98              	_ZN5Queue3getEv:
  99              	.LFB35:
  17:src/Queue.cpp **** 
  18:src/Queue.cpp **** PCB *Queue::get()
  19:src/Queue.cpp **** {
 100              		.loc 1 19 1 is_stmt 1
 101              		.cfi_startproc
 102              	.LVL8:
 103 0074 130101FE 		addi	sp,sp,-32
 104              		.cfi_def_cfa_offset 32
 105 0078 233C1100 		sd	ra,24(sp)
 106 007c 23388100 		sd	s0,16(sp)
 107 0080 23349100 		sd	s1,8(sp)
 108              		.cfi_offset 1, -8
 109              		.cfi_offset 8, -16
 110              		.cfi_offset 9, -24
 111 0084 13040102 		addi	s0,sp,32
 112              		.cfi_def_cfa 8, 0
 113 0088 93070500 		mv	a5,a0
  20:src/Queue.cpp ****     if(head == nullptr) return nullptr;
 114              		.loc 1 20 5
 115              		.loc 1 20 8 is_stmt 0
 116 008c 03350500 		ld	a0,0(a0)
 117              	.LVL9:
 118              		.loc 1 20 5
 119 0090 63040504 		beqz	a0,.L8
  21:src/Queue.cpp ****     Elem* del = head;
 120              		.loc 1 21 5 is_stmt 1
 121              	.LVL10:
  22:src/Queue.cpp ****     head = head->next;
 122              		.loc 1 22 5
 123              		.loc 1 22 18 is_stmt 0
 124 0094 03378500 		ld	a4,8(a0)
 125              		.loc 1 22 10
 126 0098 23B0E700 		sd	a4,0(a5)
  23:src/Queue.cpp ****     if(head == nullptr) tail = nullptr;
 127              		.loc 1 23 5 is_stmt 1
GAS LISTING /tmp/ccT1g9Xv.s 			page 4


 128 009c 630A0702 		beqz	a4,.L10
 129              	.L7:
  24:src/Queue.cpp ****     PCB* data = del->data;
 130              		.loc 1 24 5
 131              		.loc 1 24 10 is_stmt 0
 132 00a0 83340500 		ld	s1,0(a0)
 133              	.LVL11:
  25:src/Queue.cpp ****     counter--;
 134              		.loc 1 25 5 is_stmt 1
 135 00a4 03A70701 		lw	a4,16(a5)
 136              		.loc 1 25 12 is_stmt 0
 137 00a8 1B07F7FF 		addiw	a4,a4,-1
 138 00ac 23A8E700 		sw	a4,16(a5)
  26:src/Queue.cpp ****     delete del;
 139              		.loc 1 26 5 is_stmt 1
 140              	.LVL12:
 141              	.LBB13:
 142              	.LBB14:
  20:src/../h/Queue.hpp ****         void operator delete(void *ptr) { MemoryAllocator::mem_free(ptr); }
 143              		.loc 2 20 43
 144              		.loc 2 20 68 is_stmt 0
 145 00b0 97000000 		call	_ZN15MemoryAllocator8mem_freeEPv@plt
 145      E7800000 
 146              	.LVL13:
 147              	.LBE14:
 148              	.LBE13:
  27:src/Queue.cpp ****     return data;
 149              		.loc 1 27 5 is_stmt 1
 150              	.L5:
  28:src/Queue.cpp **** }
 151              		.loc 1 28 1 is_stmt 0
 152 00b8 13850400 		mv	a0,s1
 153 00bc 83308101 		ld	ra,24(sp)
 154              		.cfi_remember_state
 155              		.cfi_restore 1
 156 00c0 03340101 		ld	s0,16(sp)
 157              		.cfi_restore 8
 158              		.cfi_def_cfa 2, 32
 159 00c4 83348100 		ld	s1,8(sp)
 160              		.cfi_restore 9
 161 00c8 13010102 		addi	sp,sp,32
 162              		.cfi_def_cfa_offset 0
 163 00cc 67800000 		jr	ra
 164              	.LVL14:
 165              	.L10:
 166              		.cfi_restore_state
  23:src/Queue.cpp ****     PCB* data = del->data;
 167              		.loc 1 23 25 is_stmt 1 discriminator 1
  23:src/Queue.cpp ****     PCB* data = del->data;
 168              		.loc 1 23 30 is_stmt 0 discriminator 1
 169 00d0 23B40700 		sd	zero,8(a5)
 170 00d4 6FF0DFFC 		j	.L7
 171              	.LVL15:
 172              	.L8:
  20:src/Queue.cpp ****     Elem* del = head;
 173              		.loc 1 20 32
 174 00d8 93040500 		mv	s1,a0
GAS LISTING /tmp/ccT1g9Xv.s 			page 5


 175 00dc 6FF0DFFD 		j	.L5
 176              		.cfi_endproc
 177              	.LFE35:
 179              	.Letext0:
 180              		.file 3 "src/../h/../lib/hw.h"
 181              		.file 4 "src/../h/MemoryAllocator.hpp"
 182              		.file 5 "src/../h/PCB.hpp"
 183              		.file 6 "src/../h/syscall_c.h"
GAS LISTING /tmp/ccT1g9Xv.s 			page 6

