GAS LISTING /tmp/ccosnwbo.s 			page 1


   1              		.file	"Scheduler.cpp"
   2              		.option pic
   3              		.option norelax
   4              		.text
   5              	.Ltext0:
   6              		.align	2
   8              	_Z41__static_initialization_and_destruction_0ii:
   9              	.LFB38:
  10              		.file 1 "src/Scheduler.cpp"
   1:src/Scheduler.cpp **** //
   2:src/Scheduler.cpp **** // Created by os on 8/2/22.
   3:src/Scheduler.cpp **** //
   4:src/Scheduler.cpp **** 
   5:src/Scheduler.cpp **** #include "../h/Scheduler.hpp"
   6:src/Scheduler.cpp **** #include "../h/PCB.hpp"
   7:src/Scheduler.cpp **** 
   8:src/Scheduler.cpp **** List<PCB> Scheduler::readyQueue;
   9:src/Scheduler.cpp **** int Scheduler::cnt = 0;
  10:src/Scheduler.cpp **** 
  11:src/Scheduler.cpp **** PCB *Scheduler::get(){
  12:src/Scheduler.cpp ****     cnt--;
  13:src/Scheduler.cpp ****     return readyQueue.removeFront();
  14:src/Scheduler.cpp **** }
  15:src/Scheduler.cpp **** 
  16:src/Scheduler.cpp **** void Scheduler::put(PCB *pcb) {
  17:src/Scheduler.cpp ****     cnt++;
  18:src/Scheduler.cpp ****     readyQueue.addEnd(pcb);
  19:src/Scheduler.cpp **** }
  20:src/Scheduler.cpp **** 
  21:src/Scheduler.cpp **** bool Scheduler::isEmpty() {
  22:src/Scheduler.cpp ****     return cnt == 0;
  23:src/Scheduler.cpp **** }
  11              		.loc 1 23 1
  12              		.cfi_startproc
  13              	.LVL0:
  14 0000 130101FF 		addi	sp,sp,-16
  15              		.cfi_def_cfa_offset 16
  16 0004 23348100 		sd	s0,8(sp)
  17              		.cfi_offset 8, -8
  18 0008 13040101 		addi	s0,sp,16
  19              		.cfi_def_cfa 8, 0
  20              		.loc 1 23 1 is_stmt 0
  21 000c 93071000 		li	a5,1
  22 0010 6308F500 		beq	a0,a5,.L4
  23              	.L1:
  24 0014 03348100 		ld	s0,8(sp)
  25              		.cfi_remember_state
  26              		.cfi_restore 8
  27              		.cfi_def_cfa 2, 16
  28 0018 13010101 		addi	sp,sp,16
  29              		.cfi_def_cfa_offset 0
  30 001c 67800000 		jr	ra
  31              	.L4:
  32              		.cfi_restore_state
  33              		.loc 1 23 1 discriminator 1
  34 0020 B7070100 		li	a5,65536
  35 0024 9387F7FF 		addi	a5,a5,-1
GAS LISTING /tmp/ccosnwbo.s 			page 2


  36 0028 E396F5FE 		bne	a1,a5,.L1
  37              	.LVL1:
  38              	.LBB23:
  39              	.LBB24:
  40              	.LBB25:
  41              		.file 2 "src/../h/list.hpp"
   1:src/../h/list.hpp **** //
   2:src/../h/list.hpp **** // Created by os on 7/29/22.
   3:src/../h/list.hpp **** //
   4:src/../h/list.hpp **** 
   5:src/../h/list.hpp **** #ifndef PROJECT_BASE_LIST_HPP
   6:src/../h/list.hpp **** #define PROJECT_BASE_LIST_HPP
   7:src/../h/list.hpp **** #include "MemoryAllocator.hpp"
   8:src/../h/list.hpp **** 
   9:src/../h/list.hpp **** template<typename T>
  10:src/../h/list.hpp **** 
  11:src/../h/list.hpp **** class List{
  12:src/../h/list.hpp **** private:
  13:src/../h/list.hpp ****     struct Elem{
  14:src/../h/list.hpp ****         T* data;
  15:src/../h/list.hpp ****         Elem* next;
  16:src/../h/list.hpp **** 
  17:src/../h/list.hpp ****         Elem(T* data, Elem* next) : data(data), next(next){}
  18:src/../h/list.hpp ****         void *operator new(size_t size) { return MemoryAllocator::mem_alloc(size); }
  19:src/../h/list.hpp ****         void operator delete(void *ptr) { MemoryAllocator::mem_free(ptr); }
  20:src/../h/list.hpp ****     };
  21:src/../h/list.hpp **** 
  22:src/../h/list.hpp ****     Elem *head, *tail;
  23:src/../h/list.hpp **** 
  24:src/../h/list.hpp **** 
  25:src/../h/list.hpp **** public:
  26:src/../h/list.hpp ****     List(){
  27:src/../h/list.hpp ****         head = tail = nullptr;
  42              		.loc 2 27 9
  43 002c 97070000 		lla	a5,.LANCHOR0
  43      93870700 
  44 0034 23B40700 		sd	zero,8(a5)
  45 0038 23B00700 		sd	zero,0(a5)
  46              	.LVL2:
  47              	.LBE25:
  48              	.LBE24:
  49              	.LBE23:
  50              		.loc 1 23 1
  51 003c 6FF09FFD 		j	.L1
  52              		.cfi_endproc
  53              	.LFE38:
  55              		.align	2
  56              		.globl	_ZN9Scheduler3getEv
  58              	_ZN9Scheduler3getEv:
  59              	.LFB25:
  11:src/Scheduler.cpp ****     cnt--;
  60              		.loc 1 11 22 is_stmt 1
  61              		.cfi_startproc
  62 0040 130101FE 		addi	sp,sp,-32
  63              		.cfi_def_cfa_offset 32
  64 0044 233C1100 		sd	ra,24(sp)
  65 0048 23388100 		sd	s0,16(sp)
GAS LISTING /tmp/ccosnwbo.s 			page 3


  66 004c 23349100 		sd	s1,8(sp)
  67              		.cfi_offset 1, -8
  68              		.cfi_offset 8, -16
  69              		.cfi_offset 9, -24
  70 0050 13040102 		addi	s0,sp,32
  71              		.cfi_def_cfa 8, 0
  12:src/Scheduler.cpp ****     return readyQueue.removeFront();
  72              		.loc 1 12 5
  12:src/Scheduler.cpp ****     return readyQueue.removeFront();
  73              		.loc 1 12 8 is_stmt 0
  74 0054 97070000 		lla	a5,.LANCHOR0
  74      93870700 
  75 005c 03A70701 		lw	a4,16(a5)
  76 0060 1B07F7FF 		addiw	a4,a4,-1
  77 0064 23A8E700 		sw	a4,16(a5)
  13:src/Scheduler.cpp **** }
  78              		.loc 1 13 5 is_stmt 1
  79              	.LVL3:
  80              	.LBB26:
  81              	.LBB27:
  28:src/../h/list.hpp ****     }
  29:src/../h/list.hpp ****     List(const List<T>&) = delete;
  30:src/../h/list.hpp ****     List<T>& operator =(const List<T>&) = delete;
  31:src/../h/list.hpp **** 
  32:src/../h/list.hpp ****     void addFront(T* data){
  33:src/../h/list.hpp ****         Elem* elem = new Elem(data, head);
  34:src/../h/list.hpp ****         head = elem;
  35:src/../h/list.hpp ****         if(!tail) tail = head;
  36:src/../h/list.hpp **** 
  37:src/../h/list.hpp ****     }
  38:src/../h/list.hpp **** 
  39:src/../h/list.hpp ****     void addEnd(T* data){
  40:src/../h/list.hpp ****         Elem* elem = new Elem(data, nullptr);
  41:src/../h/list.hpp ****         if(tail){
  42:src/../h/list.hpp ****             tail->next = elem;
  43:src/../h/list.hpp ****             tail = elem;
  44:src/../h/list.hpp ****         }else{
  45:src/../h/list.hpp ****             head = tail = elem;
  46:src/../h/list.hpp ****         }
  47:src/../h/list.hpp **** 
  48:src/../h/list.hpp ****     }
  49:src/../h/list.hpp **** 
  50:src/../h/list.hpp ****     T* removeFront(){
  51:src/../h/list.hpp ****         if(head == nullptr) return nullptr;
  82              		.loc 2 51 12 is_stmt 0
  83 0068 03B50700 		ld	a0,0(a5)
  84              		.loc 2 51 9
  85 006c 63020504 		beqz	a0,.L8
  86              	.LVL4:
  52:src/../h/list.hpp ****         Elem* del = head;
  53:src/../h/list.hpp ****         head = head->next;
  87              		.loc 2 53 22
  88 0070 83378500 		ld	a5,8(a0)
  89              		.loc 2 53 9
  90 0074 17070000 		sd	a5,.LANCHOR0,a4
  90      2330F700 
  54:src/../h/list.hpp ****         if(head == nullptr) tail = nullptr;
GAS LISTING /tmp/ccosnwbo.s 			page 4


  91              		.loc 2 54 9
  92 007c 63840702 		beqz	a5,.L10
  93              	.L7:
  55:src/../h/list.hpp ****         T* data = del->data;
  94              		.loc 2 55 12
  95 0080 83340500 		ld	s1,0(a0)
  96              	.LVL5:
  97              	.LBB28:
  98              	.LBB29:
  19:src/../h/list.hpp ****     };
  99              		.loc 2 19 68
 100 0084 97000000 		call	_ZN15MemoryAllocator8mem_freeEPv@plt
 100      E7800000 
 101              	.LVL6:
 102              	.L5:
 103              	.LBE29:
 104              	.LBE28:
 105              	.LBE27:
 106              	.LBE26:
  14:src/Scheduler.cpp **** 
 107              		.loc 1 14 1
 108 008c 13850400 		mv	a0,s1
 109 0090 83308101 		ld	ra,24(sp)
 110              		.cfi_remember_state
 111              		.cfi_restore 1
 112 0094 03340101 		ld	s0,16(sp)
 113              		.cfi_restore 8
 114              		.cfi_def_cfa 2, 32
 115 0098 83348100 		ld	s1,8(sp)
 116              		.cfi_restore 9
 117 009c 13010102 		addi	sp,sp,32
 118              		.cfi_def_cfa_offset 0
 119 00a0 67800000 		jr	ra
 120              	.LVL7:
 121              	.L10:
 122              		.cfi_restore_state
 123              	.LBB31:
 124              	.LBB30:
  54:src/../h/list.hpp ****         T* data = del->data;
 125              		.loc 2 54 29
 126 00a4 97070000 		sd	zero,.LANCHOR0+8,a5
 126      23B00700 
 127 00ac 6FF05FFD 		j	.L7
 128              	.LVL8:
 129              	.L8:
  51:src/../h/list.hpp ****         Elem* del = head;
 130              		.loc 2 51 36
 131 00b0 93040500 		mv	s1,a0
 132              	.LVL9:
 133              	.LBE30:
 134              	.LBE31:
  13:src/Scheduler.cpp **** }
 135              		.loc 1 13 35
 136 00b4 6FF09FFD 		j	.L5
 137              		.cfi_endproc
 138              	.LFE25:
 140              		.align	2
GAS LISTING /tmp/ccosnwbo.s 			page 5


 141              		.globl	_ZN9Scheduler3putEP3PCB
 143              	_ZN9Scheduler3putEP3PCB:
 144              	.LFB26:
  16:src/Scheduler.cpp ****     cnt++;
 145              		.loc 1 16 31 is_stmt 1
 146              		.cfi_startproc
 147              	.LVL10:
 148 00b8 130101FE 		addi	sp,sp,-32
 149              		.cfi_def_cfa_offset 32
 150 00bc 233C1100 		sd	ra,24(sp)
 151 00c0 23388100 		sd	s0,16(sp)
 152 00c4 23349100 		sd	s1,8(sp)
 153 00c8 23302101 		sd	s2,0(sp)
 154              		.cfi_offset 1, -8
 155              		.cfi_offset 8, -16
 156              		.cfi_offset 9, -24
 157              		.cfi_offset 18, -32
 158 00cc 13040102 		addi	s0,sp,32
 159              		.cfi_def_cfa 8, 0
 160 00d0 13090500 		mv	s2,a0
  17:src/Scheduler.cpp ****     readyQueue.addEnd(pcb);
 161              		.loc 1 17 5
  17:src/Scheduler.cpp ****     readyQueue.addEnd(pcb);
 162              		.loc 1 17 8 is_stmt 0
 163 00d4 97040000 		lla	s1,.LANCHOR0
 163      93840400 
 164 00dc 83A70401 		lw	a5,16(s1)
 165 00e0 9B871700 		addiw	a5,a5,1
 166 00e4 23A8F400 		sw	a5,16(s1)
  18:src/Scheduler.cpp **** }
 167              		.loc 1 18 5 is_stmt 1
 168              	.LVL11:
 169              	.LBB32:
 170              	.LBB33:
 171              	.LBB34:
 172              	.LBB35:
  18:src/../h/list.hpp ****         void operator delete(void *ptr) { MemoryAllocator::mem_free(ptr); }
 173              		.loc 2 18 76 is_stmt 0
 174 00e8 13050001 		li	a0,16
 175              	.LVL12:
 176 00ec 97000000 		call	_ZN15MemoryAllocator9mem_allocEm@plt
 176      E7800000 
 177              	.LVL13:
 178              	.LBE35:
 179              	.LBE34:
 180              	.LBB36:
 181              	.LBB37:
  17:src/../h/list.hpp ****         void *operator new(size_t size) { return MemoryAllocator::mem_alloc(size); }
 182              		.loc 2 17 58
 183 00f4 23302501 		sd	s2,0(a0)
 184 00f8 23340500 		sd	zero,8(a0)
 185              	.LVL14:
 186              	.LBE37:
 187              	.LBE36:
  41:src/../h/list.hpp ****             tail->next = elem;
 188              		.loc 2 41 12
 189 00fc 83B78400 		ld	a5,8(s1)
GAS LISTING /tmp/ccosnwbo.s 			page 6


  41:src/../h/list.hpp ****             tail->next = elem;
 190              		.loc 2 41 9
 191 0100 63840702 		beqz	a5,.L12
  42:src/../h/list.hpp ****             tail = elem;
 192              		.loc 2 42 13
 193 0104 23B4A700 		sd	a0,8(a5)
  43:src/../h/list.hpp ****         }else{
 194              		.loc 2 43 13
 195 0108 97070000 		sd	a0,.LANCHOR0+8,a5
 195      23B0A700 
 196              	.LVL15:
 197              	.L11:
 198              	.LBE33:
 199              	.LBE32:
  19:src/Scheduler.cpp **** 
 200              		.loc 1 19 1
 201 0110 83308101 		ld	ra,24(sp)
 202              		.cfi_remember_state
 203              		.cfi_restore 1
 204 0114 03340101 		ld	s0,16(sp)
 205              		.cfi_restore 8
 206              		.cfi_def_cfa 2, 32
 207 0118 83348100 		ld	s1,8(sp)
 208              		.cfi_restore 9
 209 011c 03390100 		ld	s2,0(sp)
 210              		.cfi_restore 18
 211              	.LVL16:
 212 0120 13010102 		addi	sp,sp,32
 213              		.cfi_def_cfa_offset 0
 214 0124 67800000 		jr	ra
 215              	.LVL17:
 216              	.L12:
 217              		.cfi_restore_state
 218              	.LBB39:
 219              	.LBB38:
  45:src/../h/list.hpp ****         }
 220              		.loc 2 45 13
 221 0128 97070000 		lla	a5,.LANCHOR0
 221      93870700 
 222 0130 23B4A700 		sd	a0,8(a5)
 223 0134 23B0A700 		sd	a0,0(a5)
 224              	.LVL18:
 225              	.LBE38:
 226              	.LBE39:
  19:src/Scheduler.cpp **** 
 227              		.loc 1 19 1
 228 0138 6FF09FFD 		j	.L11
 229              		.cfi_endproc
 230              	.LFE26:
 232              		.align	2
 233              		.globl	_ZN9Scheduler7isEmptyEv
 235              	_ZN9Scheduler7isEmptyEv:
 236              	.LFB27:
  21:src/Scheduler.cpp ****     return cnt == 0;
 237              		.loc 1 21 27 is_stmt 1
 238              		.cfi_startproc
 239 013c 130101FF 		addi	sp,sp,-16
GAS LISTING /tmp/ccosnwbo.s 			page 7


 240              		.cfi_def_cfa_offset 16
 241 0140 23348100 		sd	s0,8(sp)
 242              		.cfi_offset 8, -8
 243 0144 13040101 		addi	s0,sp,16
 244              		.cfi_def_cfa 8, 0
  22:src/Scheduler.cpp **** }
 245              		.loc 1 22 5
  22:src/Scheduler.cpp **** }
 246              		.loc 1 22 16 is_stmt 0
 247 0148 17050000 		lw	a0,.LANCHOR0+16
 247      03250500 
 248              		.loc 1 23 1
 249 0150 13351500 		seqz	a0,a0
 250 0154 03348100 		ld	s0,8(sp)
 251              		.cfi_restore 8
 252              		.cfi_def_cfa 2, 16
 253 0158 13010101 		addi	sp,sp,16
 254              		.cfi_def_cfa_offset 0
 255 015c 67800000 		jr	ra
 256              		.cfi_endproc
 257              	.LFE27:
 259              		.align	2
 261              	_GLOBAL__sub_I__ZN9Scheduler10readyQueueE:
 262              	.LFB39:
 263              		.loc 1 23 1 is_stmt 1
 264              		.cfi_startproc
 265 0160 130101FF 		addi	sp,sp,-16
 266              		.cfi_def_cfa_offset 16
 267 0164 23341100 		sd	ra,8(sp)
 268 0168 23308100 		sd	s0,0(sp)
 269              		.cfi_offset 1, -8
 270              		.cfi_offset 8, -16
 271 016c 13040101 		addi	s0,sp,16
 272              		.cfi_def_cfa 8, 0
 273              		.loc 1 23 1 is_stmt 0
 274 0170 B7050100 		li	a1,65536
 275 0174 9385F5FF 		addi	a1,a1,-1
 276 0178 13051000 		li	a0,1
 277 017c 97000000 		call	_Z41__static_initialization_and_destruction_0ii
 277      E7800000 
 278              	.LVL19:
 279 0184 83308100 		ld	ra,8(sp)
 280              		.cfi_restore 1
 281 0188 03340100 		ld	s0,0(sp)
 282              		.cfi_restore 8
 283              		.cfi_def_cfa 2, 16
 284 018c 13010101 		addi	sp,sp,16
 285              		.cfi_def_cfa_offset 0
 286 0190 67800000 		jr	ra
 287              		.cfi_endproc
 288              	.LFE39:
 290              		.section	.init_array,"aw"
 291              		.align	3
 292 0000 00000000 		.dword	_GLOBAL__sub_I__ZN9Scheduler10readyQueueE
 292      00000000 
 293              		.globl	_ZN9Scheduler3cntE
 294              		.globl	_ZN9Scheduler10readyQueueE
GAS LISTING /tmp/ccosnwbo.s 			page 8


 295              		.bss
 296              		.align	3
 297              		.set	.LANCHOR0,. + 0
 300              	_ZN9Scheduler10readyQueueE:
 301 0000 00000000 		.zero	16
 301      00000000 
 301      00000000 
 301      00000000 
 304              	_ZN9Scheduler3cntE:
 305 0010 00000000 		.zero	4
 306              		.text
 307              	.Letext0:
 308              		.file 3 "src/../h/../lib/hw.h"
 309              		.file 4 "src/../h/MemoryAllocator.hpp"
 310              		.file 5 "src/../h/Scheduler.hpp"
 311              		.file 6 "src/../h/PCB.hpp"
 312              		.file 7 "src/../h/syscall_c.h"
GAS LISTING /tmp/ccosnwbo.s 			page 9


DEFINED SYMBOLS
                            *ABS*:0000000000000000 Scheduler.cpp
     /tmp/ccosnwbo.s:8      .text:0000000000000000 _Z41__static_initialization_and_destruction_0ii
     /tmp/ccosnwbo.s:12     .text:0000000000000000 .L0 
     /tmp/ccosnwbo.s:14     .text:0000000000000000 .L0 
     /tmp/ccosnwbo.s:15     .text:0000000000000004 .L0 
     /tmp/ccosnwbo.s:17     .text:0000000000000008 .L0 
     /tmp/ccosnwbo.s:19     .text:000000000000000c .L0 
     /tmp/ccosnwbo.s:21     .text:000000000000000c .L0 
     /tmp/ccosnwbo.s:25     .text:0000000000000018 .L0 
     /tmp/ccosnwbo.s:26     .text:0000000000000018 .L0 
     /tmp/ccosnwbo.s:27     .text:0000000000000018 .L0 
     /tmp/ccosnwbo.s:29     .text:000000000000001c .L0 
     /tmp/ccosnwbo.s:32     .text:0000000000000020 .L0 
     /tmp/ccosnwbo.s:34     .text:0000000000000020 .L0 
     /tmp/ccosnwbo.s:43     .text:000000000000002c .L0 
     /tmp/ccosnwbo.s:51     .text:000000000000003c .L0 
     /tmp/ccosnwbo.s:52     .text:0000000000000040 .L0 
     /tmp/ccosnwbo.s:58     .text:0000000000000040 _ZN9Scheduler3getEv
     /tmp/ccosnwbo.s:61     .text:0000000000000040 .L0 
     /tmp/ccosnwbo.s:62     .text:0000000000000040 .L0 
     /tmp/ccosnwbo.s:63     .text:0000000000000044 .L0 
     /tmp/ccosnwbo.s:67     .text:0000000000000050 .L0 
     /tmp/ccosnwbo.s:68     .text:0000000000000050 .L0 
     /tmp/ccosnwbo.s:69     .text:0000000000000050 .L0 
     /tmp/ccosnwbo.s:71     .text:0000000000000054 .L0 
     /tmp/ccosnwbo.s:73     .text:0000000000000054 .L0 
     /tmp/ccosnwbo.s:74     .text:0000000000000054 .L0 
     /tmp/ccosnwbo.s:82     .text:0000000000000068 .L0 
     /tmp/ccosnwbo.s:83     .text:0000000000000068 .L0 
     /tmp/ccosnwbo.s:85     .text:000000000000006c .L0 
     /tmp/ccosnwbo.s:88     .text:0000000000000070 .L0 
     /tmp/ccosnwbo.s:90     .text:0000000000000074 .L0 
     /tmp/ccosnwbo.s:92     .text:000000000000007c .L0 
     /tmp/ccosnwbo.s:95     .text:0000000000000080 .L0 
     /tmp/ccosnwbo.s:100    .text:0000000000000084 .L0 
     /tmp/ccosnwbo.s:108    .text:000000000000008c .L0 
     /tmp/ccosnwbo.s:110    .text:0000000000000094 .L0 
     /tmp/ccosnwbo.s:111    .text:0000000000000094 .L0 
     /tmp/ccosnwbo.s:113    .text:0000000000000098 .L0 
     /tmp/ccosnwbo.s:114    .text:0000000000000098 .L0 
     /tmp/ccosnwbo.s:116    .text:000000000000009c .L0 
     /tmp/ccosnwbo.s:118    .text:00000000000000a0 .L0 
     /tmp/ccosnwbo.s:122    .text:00000000000000a4 .L0 
     /tmp/ccosnwbo.s:126    .text:00000000000000a4 .L0 
     /tmp/ccosnwbo.s:131    .text:00000000000000b0 .L0 
     /tmp/ccosnwbo.s:136    .text:00000000000000b4 .L0 
     /tmp/ccosnwbo.s:137    .text:00000000000000b8 .L0 
     /tmp/ccosnwbo.s:143    .text:00000000000000b8 _ZN9Scheduler3putEP3PCB
     /tmp/ccosnwbo.s:146    .text:00000000000000b8 .L0 
     /tmp/ccosnwbo.s:148    .text:00000000000000b8 .L0 
     /tmp/ccosnwbo.s:149    .text:00000000000000bc .L0 
     /tmp/ccosnwbo.s:154    .text:00000000000000cc .L0 
     /tmp/ccosnwbo.s:155    .text:00000000000000cc .L0 
     /tmp/ccosnwbo.s:156    .text:00000000000000cc .L0 
     /tmp/ccosnwbo.s:157    .text:00000000000000cc .L0 
     /tmp/ccosnwbo.s:159    .text:00000000000000d0 .L0 
GAS LISTING /tmp/ccosnwbo.s 			page 10


     /tmp/ccosnwbo.s:162    .text:00000000000000d4 .L0 
     /tmp/ccosnwbo.s:163    .text:00000000000000d4 .L0 
     /tmp/ccosnwbo.s:173    .text:00000000000000e8 .L0 
     /tmp/ccosnwbo.s:174    .text:00000000000000e8 .L0 
     /tmp/ccosnwbo.s:183    .text:00000000000000f4 .L0 
     /tmp/ccosnwbo.s:189    .text:00000000000000fc .L0 
     /tmp/ccosnwbo.s:191    .text:0000000000000100 .L0 
     /tmp/ccosnwbo.s:193    .text:0000000000000104 .L0 
     /tmp/ccosnwbo.s:195    .text:0000000000000108 .L0 
     /tmp/ccosnwbo.s:201    .text:0000000000000110 .L0 
     /tmp/ccosnwbo.s:202    .text:0000000000000114 .L0 
     /tmp/ccosnwbo.s:203    .text:0000000000000114 .L0 
     /tmp/ccosnwbo.s:205    .text:0000000000000118 .L0 
     /tmp/ccosnwbo.s:206    .text:0000000000000118 .L0 
     /tmp/ccosnwbo.s:208    .text:000000000000011c .L0 
     /tmp/ccosnwbo.s:210    .text:0000000000000120 .L0 
     /tmp/ccosnwbo.s:213    .text:0000000000000124 .L0 
     /tmp/ccosnwbo.s:217    .text:0000000000000128 .L0 
     /tmp/ccosnwbo.s:221    .text:0000000000000128 .L0 
     /tmp/ccosnwbo.s:228    .text:0000000000000138 .L0 
     /tmp/ccosnwbo.s:229    .text:000000000000013c .L0 
     /tmp/ccosnwbo.s:235    .text:000000000000013c _ZN9Scheduler7isEmptyEv
     /tmp/ccosnwbo.s:238    .text:000000000000013c .L0 
     /tmp/ccosnwbo.s:239    .text:000000000000013c .L0 
     /tmp/ccosnwbo.s:240    .text:0000000000000140 .L0 
     /tmp/ccosnwbo.s:242    .text:0000000000000144 .L0 
     /tmp/ccosnwbo.s:244    .text:0000000000000148 .L0 
     /tmp/ccosnwbo.s:246    .text:0000000000000148 .L0 
     /tmp/ccosnwbo.s:247    .text:0000000000000148 .L0 
     /tmp/ccosnwbo.s:249    .text:0000000000000150 .L0 
     /tmp/ccosnwbo.s:251    .text:0000000000000158 .L0 
     /tmp/ccosnwbo.s:252    .text:0000000000000158 .L0 
     /tmp/ccosnwbo.s:254    .text:000000000000015c .L0 
     /tmp/ccosnwbo.s:256    .text:0000000000000160 .L0 
     /tmp/ccosnwbo.s:261    .text:0000000000000160 _GLOBAL__sub_I__ZN9Scheduler10readyQueueE
     /tmp/ccosnwbo.s:264    .text:0000000000000160 .L0 
     /tmp/ccosnwbo.s:265    .text:0000000000000160 .L0 
     /tmp/ccosnwbo.s:266    .text:0000000000000164 .L0 
     /tmp/ccosnwbo.s:269    .text:000000000000016c .L0 
     /tmp/ccosnwbo.s:270    .text:000000000000016c .L0 
     /tmp/ccosnwbo.s:272    .text:0000000000000170 .L0 
     /tmp/ccosnwbo.s:274    .text:0000000000000170 .L0 
     /tmp/ccosnwbo.s:280    .text:0000000000000188 .L0 
     /tmp/ccosnwbo.s:282    .text:000000000000018c .L0 
     /tmp/ccosnwbo.s:283    .text:000000000000018c .L0 
     /tmp/ccosnwbo.s:285    .text:0000000000000190 .L0 
     /tmp/ccosnwbo.s:287    .text:0000000000000194 .L0 
     /tmp/ccosnwbo.s:304    .bss:0000000000000010 _ZN9Scheduler3cntE
     /tmp/ccosnwbo.s:300    .bss:0000000000000000 _ZN9Scheduler10readyQueueE
     /tmp/ccosnwbo.s:297    .bss:0000000000000000 .LANCHOR0
     /tmp/ccosnwbo.s:313    .text:0000000000000194 .L0 
     /tmp/ccosnwbo.s:43     .text:000000000000002c .L0 
     /tmp/ccosnwbo.s:74     .text:0000000000000054 .L0 
     /tmp/ccosnwbo.s:90     .text:0000000000000074 .L0 
     /tmp/ccosnwbo.s:126    .text:00000000000000a4 .L0 
     /tmp/ccosnwbo.s:163    .text:00000000000000d4 .L0 
     /tmp/ccosnwbo.s:195    .text:0000000000000108 .L0 
GAS LISTING /tmp/ccosnwbo.s 			page 11


     /tmp/ccosnwbo.s:221    .text:0000000000000128 .L0 
     /tmp/ccosnwbo.s:247    .text:0000000000000148 .L0 
     /tmp/ccosnwbo.s:31     .text:0000000000000020 .L4
     /tmp/ccosnwbo.s:23     .text:0000000000000014 .L1
     /tmp/ccosnwbo.s:129    .text:00000000000000b0 .L8
     /tmp/ccosnwbo.s:121    .text:00000000000000a4 .L10
     /tmp/ccosnwbo.s:93     .text:0000000000000080 .L7
     /tmp/ccosnwbo.s:102    .text:000000000000008c .L5
     /tmp/ccosnwbo.s:216    .text:0000000000000128 .L12
     /tmp/ccosnwbo.s:197    .text:0000000000000110 .L11
     /tmp/ccosnwbo.s:1554   .debug_abbrev:0000000000000000 .Ldebug_abbrev0
     /tmp/ccosnwbo.s:3214   .debug_str:00000000000006b4 .LASF117
     /tmp/ccosnwbo.s:3236   .debug_str:0000000000000820 .LASF118
     /tmp/ccosnwbo.s:3056   .debug_str:00000000000001ea .LASF119
     /tmp/ccosnwbo.s:5      .text:0000000000000000 .Ltext0
     /tmp/ccosnwbo.s:307    .text:0000000000000194 .Letext0
     /tmp/ccosnwbo.s:2994   .debug_line:0000000000000000 .Ldebug_line0
     /tmp/ccosnwbo.s:3128   .debug_str:0000000000000410 .LASF0
     /tmp/ccosnwbo.s:3148   .debug_str:00000000000004aa .LASF1
     /tmp/ccosnwbo.s:3114   .debug_str:00000000000003b9 .LASF2
     /tmp/ccosnwbo.s:3076   .debug_str:00000000000002be .LASF4
     /tmp/ccosnwbo.s:3196   .debug_str:0000000000000628 .LASF3
     /tmp/ccosnwbo.s:3014   .debug_str:000000000000008c .LASF5
     /tmp/ccosnwbo.s:3152   .debug_str:00000000000004dc .LASF6
     /tmp/ccosnwbo.s:3126   .debug_str:00000000000003fd .LASF7
     /tmp/ccosnwbo.s:3228   .debug_str:00000000000007dd .LASF8
     /tmp/ccosnwbo.s:3062   .debug_str:0000000000000242 .LASF9
     /tmp/ccosnwbo.s:3170   .debug_str:0000000000000554 .LASF10
     /tmp/ccosnwbo.s:3218   .debug_str:0000000000000795 .LASF11
     /tmp/ccosnwbo.s:3016   .debug_str:0000000000000093 .LASF12
     /tmp/ccosnwbo.s:3000   .debug_str:0000000000000014 .LASF13
     /tmp/ccosnwbo.s:3030   .debug_str:000000000000013e .LASF14
     /tmp/ccosnwbo.s:3188   .debug_str:00000000000005cd .LASF15
     /tmp/ccosnwbo.s:3040   .debug_str:0000000000000185 .LASF16
     /tmp/ccosnwbo.s:3092   .debug_str:000000000000032a .LASF33
     /tmp/ccosnwbo.s:3212   .debug_str:00000000000006af .LASF17
     /tmp/ccosnwbo.s:3250   .debug_str:000000000000088b .LASF18
     /tmp/ccosnwbo.s:3244   .debug_str:0000000000000873 .LASF19
     /tmp/ccosnwbo.s:3108   .debug_str:0000000000000396 .LASF27
     /tmp/ccosnwbo.s:3252   .debug_str:0000000000000890 .LASF20
     /tmp/ccosnwbo.s:3078   .debug_str:00000000000002c5 .LASF22
     /tmp/ccosnwbo.s:3086   .debug_str:0000000000000308 .LASF21
     /tmp/ccosnwbo.s:3178   .debug_str:0000000000000577 .LASF23
     /tmp/ccosnwbo.s:2996   .debug_str:0000000000000000 .LASF24
     /tmp/ccosnwbo.s:3248   .debug_str:0000000000000885 .LASF25
     /tmp/ccosnwbo.s:3200   .debug_str:000000000000064b .LASF42
     /tmp/ccosnwbo.s:3210   .debug_str:000000000000068e .LASF44
     /tmp/ccosnwbo.s:3174   .debug_str:0000000000000569 .LASF30
     /tmp/ccosnwbo.s:3060   .debug_str:0000000000000221 .LASF36
     /tmp/ccosnwbo.s:3054   .debug_str:00000000000001e5 .LASF26
     /tmp/ccosnwbo.s:3164   .debug_str:000000000000053f .LASF28
     /tmp/ccosnwbo.s:3010   .debug_str:000000000000006a .LASF29
     /tmp/ccosnwbo.s:3070   .debug_str:0000000000000295 .LASF120
     /tmp/ccosnwbo.s:3100   .debug_str:000000000000035f .LASF121
     /tmp/ccosnwbo.s:3038   .debug_str:000000000000017d .LASF31
     /tmp/ccosnwbo.s:3134   .debug_str:0000000000000443 .LASF73
     /tmp/ccosnwbo.s:3088   .debug_str:0000000000000313 .LASF32
GAS LISTING /tmp/ccosnwbo.s 			page 12


     /tmp/ccosnwbo.s:3220   .debug_str:00000000000007a4 .LASF34
     /tmp/ccosnwbo.s:3184   .debug_str:00000000000005b1 .LASF35
     /tmp/ccosnwbo.s:3066   .debug_str:0000000000000263 .LASF37
     /tmp/ccosnwbo.s:3240   .debug_str:000000000000084d .LASF38
     /tmp/ccosnwbo.s:3026   .debug_str:00000000000000fe .LASF39
     /tmp/ccosnwbo.s:3204   .debug_str:000000000000065b .LASF76
     /tmp/ccosnwbo.s:3242   .debug_str:000000000000085a .LASF122
     /tmp/ccosnwbo.s:3044   .debug_str:00000000000001a2 .LASF40
     /tmp/ccosnwbo.s:3116   .debug_str:00000000000003c7 .LASF41
     /tmp/ccosnwbo.s:3074   .debug_str:00000000000002b9 .LASF43
     /tmp/ccosnwbo.s:3094   .debug_str:0000000000000333 .LASF45
     /tmp/ccosnwbo.s:3012   .debug_str:0000000000000075 .LASF51
     /tmp/ccosnwbo.s:3122   .debug_str:00000000000003e4 .LASF123
     /tmp/ccosnwbo.s:3186   .debug_str:00000000000005b6 .LASF124
     /tmp/ccosnwbo.s:3032   .debug_str:000000000000014a .LASF46
     /tmp/ccosnwbo.s:3216   .debug_str:0000000000000778 .LASF47
     /tmp/ccosnwbo.s:3084   .debug_str:0000000000000301 .LASF48
     /tmp/ccosnwbo.s:3238   .debug_str:0000000000000832 .LASF49
     /tmp/ccosnwbo.s:3036   .debug_str:0000000000000171 .LASF50
     /tmp/ccosnwbo.s:3034   .debug_str:0000000000000153 .LASF52
     /tmp/ccosnwbo.s:3156   .debug_str:00000000000004fb .LASF53
     /tmp/ccosnwbo.s:3162   .debug_str:0000000000000524 .LASF54
     /tmp/ccosnwbo.s:3020   .debug_str:00000000000000cd .LASF55
     /tmp/ccosnwbo.s:3226   .debug_str:00000000000007c2 .LASF56
     /tmp/ccosnwbo.s:2998   .debug_str:000000000000000c .LASF57
     /tmp/ccosnwbo.s:3232   .debug_str:00000000000007ff .LASF58
     /tmp/ccosnwbo.s:3120   .debug_str:00000000000003d7 .LASF125
     /tmp/ccosnwbo.s:3160   .debug_str:000000000000051c .LASF59
     /tmp/ccosnwbo.s:3168   .debug_str:000000000000054e .LASF60
     /tmp/ccosnwbo.s:3140   .debug_str:0000000000000471 .LASF61
     /tmp/ccosnwbo.s:3234   .debug_str:0000000000000818 .LASF62
     /tmp/ccosnwbo.s:3106   .debug_str:000000000000038a .LASF63
     /tmp/ccosnwbo.s:3006   .debug_str:0000000000000058 .LASF64
     /tmp/ccosnwbo.s:3112   .debug_str:00000000000003b1 .LASF65
     /tmp/ccosnwbo.s:3180   .debug_str:00000000000005a7 .LASF66
     /tmp/ccosnwbo.s:3022   .debug_str:00000000000000d7 .LASF67
     /tmp/ccosnwbo.s:3090   .debug_str:000000000000031d .LASF68
     /tmp/ccosnwbo.s:3254   .debug_str:0000000000000898 .LASF69
     /tmp/ccosnwbo.s:3182   .debug_str:00000000000005ac .LASF126
     /tmp/ccosnwbo.s:3138   .debug_str:0000000000000462 .LASF70
     /tmp/ccosnwbo.s:3046   .debug_str:00000000000001a7 .LASF71
     /tmp/ccosnwbo.s:3230   .debug_str:00000000000007ed .LASF72
     /tmp/ccosnwbo.s:3132   .debug_str:0000000000000426 .LASF74
     /tmp/ccosnwbo.s:3154   .debug_str:00000000000004ef .LASF75
     /tmp/ccosnwbo.s:3246   .debug_str:0000000000000878 .LASF77
     /tmp/ccosnwbo.s:3118   .debug_str:00000000000003cc .LASF78
     /tmp/ccosnwbo.s:3158   .debug_str:0000000000000505 .LASF79
     /tmp/ccosnwbo.s:3222   .debug_str:00000000000007a9 .LASF80
     /tmp/ccosnwbo.s:3004   .debug_str:0000000000000033 .LASF81
     /tmp/ccosnwbo.s:3206   .debug_str:000000000000066b .LASF82
     /tmp/ccosnwbo.s:3058   .debug_str:0000000000000208 .LASF83
     /tmp/ccosnwbo.s:3050   .debug_str:00000000000001d1 .LASF84
     /tmp/ccosnwbo.s:3042   .debug_str:000000000000019b .LASF85
     /tmp/ccosnwbo.s:3146   .debug_str:00000000000004a4 .LASF86
     /tmp/ccosnwbo.s:3072   .debug_str:00000000000002a9 .LASF87
     /tmp/ccosnwbo.s:3102   .debug_str:0000000000000377 .LASF88
     /tmp/ccosnwbo.s:3002   .debug_str:0000000000000024 .LASF89
GAS LISTING /tmp/ccosnwbo.s 			page 13


     /tmp/ccosnwbo.s:3172   .debug_str:0000000000000563 .LASF90
     /tmp/ccosnwbo.s:3142   .debug_str:000000000000047a .LASF91
     /tmp/ccosnwbo.s:3198   .debug_str:000000000000063a .LASF92
     /tmp/ccosnwbo.s:3082   .debug_str:00000000000002fc .LASF93
     /tmp/ccosnwbo.s:3202   .debug_str:0000000000000655 .LASF94
     /tmp/ccosnwbo.s:3192   .debug_str:00000000000005f6 .LASF95
     /tmp/ccosnwbo.s:3136   .debug_str:000000000000045b .LASF96
     /tmp/ccosnwbo.s:3008   .debug_str:0000000000000060 .LASF97
     /tmp/ccosnwbo.s:3096   .debug_str:0000000000000346 .LASF98
     /tmp/ccosnwbo.s:3110   .debug_str:00000000000003a6 .LASF99
     /tmp/ccosnwbo.s:3130   .debug_str:000000000000041d .LASF102
     /tmp/ccosnwbo.s:3068   .debug_str:0000000000000282 .LASF104
     /tmp/ccosnwbo.s:3104   .debug_str:000000000000037c .LASF100
     /tmp/ccosnwbo.s:3028   .debug_str:0000000000000116 .LASF101
     /tmp/ccosnwbo.s:3098   .debug_str:0000000000000351 .LASF103
     /tmp/ccosnwbo.s:3144   .debug_str:000000000000048b .LASF105
     /tmp/ccosnwbo.s:3208   .debug_str:0000000000000678 .LASF127
     /tmp/ccosnwbo.s:3052   .debug_str:00000000000001d9 .LASF128
     /tmp/ccosnwbo.s:3048   .debug_str:00000000000001cb .LASF106
     /tmp/ccosnwbo.s:3224   .debug_str:00000000000007b3 .LASF129
     /tmp/ccosnwbo.s:3024   .debug_str:00000000000000e3 .LASF107
     /tmp/ccosnwbo.s:3190   .debug_str:00000000000005e3 .LASF108
     /tmp/ccosnwbo.s:3018   .debug_str:00000000000000a3 .LASF109
     /tmp/ccosnwbo.s:262    .text:0000000000000160 .LFB39
     /tmp/ccosnwbo.s:288    .text:0000000000000194 .LFE39
     /tmp/ccosnwbo.s:278    .text:0000000000000184 .LVL19
     /tmp/ccosnwbo.s:3194   .debug_str:00000000000005fe .LASF110
     /tmp/ccosnwbo.s:9      .text:0000000000000000 .LFB38
     /tmp/ccosnwbo.s:53     .text:0000000000000040 .LFE38
     /tmp/ccosnwbo.s:3124   .debug_str:00000000000003ee .LASF111
     /tmp/ccosnwbo.s:3080   .debug_str:00000000000002f1 .LASF112
     /tmp/ccosnwbo.s:38     .text:000000000000002c .LBB23
     /tmp/ccosnwbo.s:49     .text:000000000000003c .LBE23
     /tmp/ccosnwbo.s:2836   .debug_loc:0000000000000000 .LLST0
     /tmp/ccosnwbo.s:3176   .debug_str:0000000000000572 .LASF113
     /tmp/ccosnwbo.s:3150   .debug_str:00000000000004bd .LASF115
     /tmp/ccosnwbo.s:3166   .debug_str:0000000000000549 .LASF114
     /tmp/ccosnwbo.s:3064   .debug_str:0000000000000250 .LASF116
     /tmp/ccosnwbo.s:236    .text:000000000000013c .LFB27
     /tmp/ccosnwbo.s:257    .text:0000000000000160 .LFE27
     /tmp/ccosnwbo.s:144    .text:00000000000000b8 .LFB26
     /tmp/ccosnwbo.s:230    .text:000000000000013c .LFE26
     /tmp/ccosnwbo.s:2845   .debug_loc:000000000000002c .LLST5
     /tmp/ccosnwbo.s:169    .text:00000000000000e8 .LBB32
     /tmp/ccosnwbo.s:2980   .debug_ranges:0000000000000000 .Ldebug_ranges0
     /tmp/ccosnwbo.s:2867   .debug_loc:000000000000008b .LLST6
     /tmp/ccosnwbo.s:2882   .debug_loc:00000000000000d4 .LLST7
     /tmp/ccosnwbo.s:171    .text:00000000000000e8 .LBB34
     /tmp/ccosnwbo.s:179    .text:00000000000000f4 .LBE34
     /tmp/ccosnwbo.s:2897   .debug_loc:000000000000011c .LLST8
     /tmp/ccosnwbo.s:177    .text:00000000000000f4 .LVL13
     /tmp/ccosnwbo.s:180    .text:00000000000000f4 .LBB36
     /tmp/ccosnwbo.s:187    .text:00000000000000fc .LBE36
     /tmp/ccosnwbo.s:2905   .debug_loc:0000000000000140 .LLST9
     /tmp/ccosnwbo.s:2913   .debug_loc:0000000000000164 .LLST10
     /tmp/ccosnwbo.s:2920   .debug_loc:0000000000000187 .LLST11
     /tmp/ccosnwbo.s:59     .text:0000000000000040 .LFB25
GAS LISTING /tmp/ccosnwbo.s 			page 14


     /tmp/ccosnwbo.s:138    .text:00000000000000b8 .LFE25
     /tmp/ccosnwbo.s:80     .text:0000000000000068 .LBB26
     /tmp/ccosnwbo.s:2927   .debug_loc:00000000000001aa .LLST1
     /tmp/ccosnwbo.s:2942   .debug_loc:00000000000001f2 .LLST2
     /tmp/ccosnwbo.s:2953   .debug_loc:0000000000000228 .LLST3
     /tmp/ccosnwbo.s:97     .text:0000000000000084 .LBB28
     /tmp/ccosnwbo.s:104    .text:000000000000008c .LBE28
     /tmp/ccosnwbo.s:2960   .debug_loc:000000000000024b .LLST4
     /tmp/ccosnwbo.s:101    .text:000000000000008c .LVL6
     /tmp/ccosnwbo.s:37     .text:000000000000002c .LVL1
     /tmp/ccosnwbo.s:46     .text:000000000000003c .LVL2
     /tmp/ccosnwbo.s:147    .text:00000000000000b8 .LVL10
     /tmp/ccosnwbo.s:175    .text:00000000000000ec .LVL12
     /tmp/ccosnwbo.s:211    .text:0000000000000120 .LVL16
     /tmp/ccosnwbo.s:215    .text:0000000000000128 .LVL17
     /tmp/ccosnwbo.s:168    .text:00000000000000e8 .LVL11
     /tmp/ccosnwbo.s:196    .text:0000000000000110 .LVL15
     /tmp/ccosnwbo.s:224    .text:0000000000000138 .LVL18
     /tmp/ccosnwbo.s:185    .text:00000000000000fc .LVL14
     /tmp/ccosnwbo.s:79     .text:0000000000000068 .LVL3
     /tmp/ccosnwbo.s:120    .text:00000000000000a4 .LVL7
     /tmp/ccosnwbo.s:132    .text:00000000000000b4 .LVL9
     /tmp/ccosnwbo.s:86     .text:0000000000000070 .LVL4
     /tmp/ccosnwbo.s:128    .text:00000000000000b0 .LVL8
     /tmp/ccosnwbo.s:96     .text:0000000000000084 .LVL5
     /tmp/ccosnwbo.s:314    .debug_info:0000000000000000 .Ldebug_info0
     /tmp/ccosnwbo.s:106    .text:000000000000008c .LBE26
     /tmp/ccosnwbo.s:123    .text:00000000000000a4 .LBB31
     /tmp/ccosnwbo.s:134    .text:00000000000000b4 .LBE31
     /tmp/ccosnwbo.s:199    .text:0000000000000110 .LBE32
     /tmp/ccosnwbo.s:218    .text:0000000000000128 .LBB39
     /tmp/ccosnwbo.s:226    .text:0000000000000138 .LBE39

UNDEFINED SYMBOLS
_ZN15MemoryAllocator8mem_freeEPv
_ZN15MemoryAllocator9mem_allocEm
