GAS LISTING /tmp/ccTlVi86.s 			page 1


   1              		.file	"SemDescription.cpp"
   2              		.option pic
   3              		.option norelax
   4              		.text
   5              	.Ltext0:
   6              		.align	2
   7              		.globl	_ZN14SemDescription5blockEv
   9              	_ZN14SemDescription5blockEv:
  10              	.LFB46:
  11              		.file 1 "src/SemDescription.cpp"
   1:src/SemDescription.cpp **** //
   2:src/SemDescription.cpp **** // Created by os on 8/13/22.
   3:src/SemDescription.cpp **** //
   4:src/SemDescription.cpp **** 
   5:src/SemDescription.cpp **** #include "../h/SemDescription.hpp"
   6:src/SemDescription.cpp **** 
   7:src/SemDescription.cpp **** int SemDescription::wait() {
   8:src/SemDescription.cpp ****     if(isClosed) return -1;
   9:src/SemDescription.cpp ****     if(--val < 0){
  10:src/SemDescription.cpp ****         blocked.put(PCB::running);
  11:src/SemDescription.cpp ****         block();
  12:src/SemDescription.cpp ****     }
  13:src/SemDescription.cpp ****     return 0;
  14:src/SemDescription.cpp **** }
  15:src/SemDescription.cpp **** 
  16:src/SemDescription.cpp **** int SemDescription::signal() {
  17:src/SemDescription.cpp ****     if(isClosed) return -1;
  18:src/SemDescription.cpp ****     if(++val <= 0){
  19:src/SemDescription.cpp ****         PCB* thread = blocked.get();
  20:src/SemDescription.cpp ****         unblock(thread);
  21:src/SemDescription.cpp ****     }
  22:src/SemDescription.cpp ****     return 0;
  23:src/SemDescription.cpp **** }
  24:src/SemDescription.cpp **** 
  25:src/SemDescription.cpp **** int SemDescription::close() { //ukloni sve iz liste blokiranih i val postavi na 0
  26:src/SemDescription.cpp ****     if(isClosed) return -1;
  27:src/SemDescription.cpp ****     isClosed = true;
  28:src/SemDescription.cpp ****     while(blocked.size() > 0){
  29:src/SemDescription.cpp ****         PCB* thread = blocked.get();
  30:src/SemDescription.cpp ****         unblock(thread);
  31:src/SemDescription.cpp ****     }
  32:src/SemDescription.cpp ****     val = 0;
  33:src/SemDescription.cpp ****     return 0;
  34:src/SemDescription.cpp **** }
  35:src/SemDescription.cpp **** 
  36:src/SemDescription.cpp **** int SemDescription::block() { //running nit se blokira na semaforu
  12              		.loc 1 36 29
  13              		.cfi_startproc
  14              	.LVL0:
  37:src/SemDescription.cpp ****     if(PCB::running->status == PCB::ThreadStatus::RUNNING){
  15              		.loc 1 37 5
  16              		.loc 1 37 22 is_stmt 0
  17 0000 97070000 		la	a5,_ZN3PCB7runningE
  17      83B70700 
  18 0008 83B70700 		ld	a5,0(a5)
  19 000c 03A78703 		lw	a4,56(a5)
  20              		.loc 1 37 5
GAS LISTING /tmp/ccTlVi86.s 			page 2


  21 0010 631C0702 		bnez	a4,.L3
  36:src/SemDescription.cpp ****     if(PCB::running->status == PCB::ThreadStatus::RUNNING){
  22              		.loc 1 36 29
  23 0014 130101FF 		addi	sp,sp,-16
  24              		.cfi_def_cfa_offset 16
  25 0018 23341100 		sd	ra,8(sp)
  26 001c 23308100 		sd	s0,0(sp)
  27              		.cfi_offset 1, -8
  28              		.cfi_offset 8, -16
  29 0020 13040101 		addi	s0,sp,16
  30              		.cfi_def_cfa 8, 0
  38:src/SemDescription.cpp ****         PCB::running->status = PCB::ThreadStatus::BLOCKED_SEM; //sada ona ceka
  31              		.loc 1 38 9 is_stmt 1
  32              		.loc 1 38 30 is_stmt 0
  33 0024 13074000 		li	a4,4
  34 0028 23ACE702 		sw	a4,56(a5)
  39:src/SemDescription.cpp ****         PCB::dispatch();
  35              		.loc 1 39 9 is_stmt 1
  36              		.loc 1 39 22 is_stmt 0
  37 002c 97000000 		call	_ZN3PCB8dispatchEv@plt
  37      E7800000 
  38              	.LVL1:
  40:src/SemDescription.cpp ****         return 0;
  39              		.loc 1 40 9 is_stmt 1
  40              		.loc 1 40 16 is_stmt 0
  41 0034 13050000 		li	a0,0
  41:src/SemDescription.cpp ****     }else return -1;
  42:src/SemDescription.cpp **** }
  42              		.loc 1 42 1
  43 0038 83308100 		ld	ra,8(sp)
  44              		.cfi_restore 1
  45 003c 03340100 		ld	s0,0(sp)
  46              		.cfi_restore 8
  47              		.cfi_def_cfa 2, 16
  48 0040 13010101 		addi	sp,sp,16
  49              		.cfi_def_cfa_offset 0
  50 0044 67800000 		jr	ra
  51              	.LVL2:
  52              	.L3:
  41:src/SemDescription.cpp ****     }else return -1;
  53              		.loc 1 41 19
  54 0048 1305F0FF 		li	a0,-1
  55              	.LVL3:
  56              		.loc 1 42 1
  57 004c 67800000 		ret
  58              		.cfi_endproc
  59              	.LFE46:
  61              		.align	2
  62              		.globl	_ZN14SemDescription4waitEv
  64              	_ZN14SemDescription4waitEv:
  65              	.LFB43:
   7:src/SemDescription.cpp ****     if(isClosed) return -1;
  66              		.loc 1 7 28 is_stmt 1
  67              		.cfi_startproc
  68              	.LVL4:
   8:src/SemDescription.cpp ****     if(--val < 0){
  69              		.loc 1 8 5
GAS LISTING /tmp/ccTlVi86.s 			page 3


   8:src/SemDescription.cpp ****     if(--val < 0){
  70              		.loc 1 8 8 is_stmt 0
  71 0050 83470502 		lbu	a5,32(a0)
   8:src/SemDescription.cpp ****     if(--val < 0){
  72              		.loc 1 8 5
  73 0054 639A0706 		bnez	a5,.L10
   7:src/SemDescription.cpp ****     if(isClosed) return -1;
  74              		.loc 1 7 28
  75 0058 130101FE 		addi	sp,sp,-32
  76              		.cfi_def_cfa_offset 32
  77 005c 233C1100 		sd	ra,24(sp)
  78 0060 23388100 		sd	s0,16(sp)
  79 0064 23349100 		sd	s1,8(sp)
  80              		.cfi_offset 1, -8
  81              		.cfi_offset 8, -16
  82              		.cfi_offset 9, -24
  83 0068 13040102 		addi	s0,sp,32
  84              		.cfi_def_cfa 8, 0
  85 006c 93040500 		mv	s1,a0
   9:src/SemDescription.cpp ****         blocked.put(PCB::running);
  86              		.loc 1 9 5 is_stmt 1
   9:src/SemDescription.cpp ****         blocked.put(PCB::running);
  87              		.loc 1 9 10 is_stmt 0
  88 0070 83270500 		lw	a5,0(a0)
   9:src/SemDescription.cpp ****         blocked.put(PCB::running);
  89              		.loc 1 9 8
  90 0074 9B87F7FF 		addiw	a5,a5,-1
   9:src/SemDescription.cpp ****         blocked.put(PCB::running);
  91              		.loc 1 9 14
  92 0078 2320F500 		sw	a5,0(a0)
   9:src/SemDescription.cpp ****         blocked.put(PCB::running);
  93              		.loc 1 9 5
  94 007c 13970702 		slli	a4,a5,32
  95 0080 634E0700 		bltz	a4,.L16
  13:src/SemDescription.cpp **** }
  96              		.loc 1 13 12
  97 0084 13050000 		li	a0,0
  98              	.LVL5:
  99              	.L9:
  14:src/SemDescription.cpp **** 
 100              		.loc 1 14 1
 101 0088 83308101 		ld	ra,24(sp)
 102              		.cfi_remember_state
 103              		.cfi_restore 1
 104 008c 03340101 		ld	s0,16(sp)
 105              		.cfi_restore 8
 106              		.cfi_def_cfa 2, 32
 107 0090 83348100 		ld	s1,8(sp)
 108              		.cfi_restore 9
 109              	.LVL6:
 110 0094 13010102 		addi	sp,sp,32
 111              		.cfi_def_cfa_offset 0
 112 0098 67800000 		jr	ra
 113              	.LVL7:
 114              	.L16:
 115              		.cfi_restore_state
  10:src/SemDescription.cpp ****         block();
GAS LISTING /tmp/ccTlVi86.s 			page 4


 116              		.loc 1 10 9 is_stmt 1
  10:src/SemDescription.cpp ****         block();
 117              		.loc 1 10 20 is_stmt 0
 118 009c 97070000 		la	a5,_ZN3PCB7runningE
 118      83B70700 
 119 00a4 83B50700 		ld	a1,0(a5)
 120 00a8 13058500 		addi	a0,a0,8
 121 00ac 97000000 		call	_ZN5Queue3putEP3PCB@plt
 121      E7800000 
 122              	.LVL8:
  11:src/SemDescription.cpp ****     }
 123              		.loc 1 11 9 is_stmt 1
  11:src/SemDescription.cpp ****     }
 124              		.loc 1 11 14 is_stmt 0
 125 00b4 13850400 		mv	a0,s1
 126 00b8 97000000 		call	_ZN14SemDescription5blockEv
 126      E7800000 
 127              	.LVL9:
  13:src/SemDescription.cpp **** }
 128              		.loc 1 13 12
 129 00c0 13050000 		li	a0,0
 130 00c4 6FF05FFC 		j	.L9
 131              	.LVL10:
 132              	.L10:
 133              		.cfi_def_cfa_register 2
 134              		.cfi_restore 1
 135              		.cfi_restore 8
 136              		.cfi_restore 9
   8:src/SemDescription.cpp ****     if(--val < 0){
 137              		.loc 1 8 26
 138 00c8 1305F0FF 		li	a0,-1
 139              	.LVL11:
  14:src/SemDescription.cpp **** 
 140              		.loc 1 14 1
 141 00cc 67800000 		ret
 142              		.cfi_endproc
 143              	.LFE43:
 145              		.align	2
 146              		.globl	_ZN14SemDescription7unblockEP3PCB
 148              	_ZN14SemDescription7unblockEP3PCB:
 149              	.LFB47:
  43:src/SemDescription.cpp **** 
  44:src/SemDescription.cpp **** int SemDescription::unblock(PCB *thr) { //odblokira nit sa semafora i vrati je u scheduler
 150              		.loc 1 44 39 is_stmt 1
 151              		.cfi_startproc
 152              	.LVL12:
  45:src/SemDescription.cpp ****     if(thr->status == PCB::ThreadStatus::BLOCKED_SEM){
 153              		.loc 1 45 5
 154              		.loc 1 45 13 is_stmt 0
 155 00d0 03A78503 		lw	a4,56(a1)
 156              		.loc 1 45 5
 157 00d4 93074000 		li	a5,4
 158 00d8 631EF702 		bne	a4,a5,.L19
  44:src/SemDescription.cpp ****     if(thr->status == PCB::ThreadStatus::BLOCKED_SEM){
 159              		.loc 1 44 39
 160 00dc 130101FF 		addi	sp,sp,-16
 161              		.cfi_def_cfa_offset 16
GAS LISTING /tmp/ccTlVi86.s 			page 5


 162 00e0 23341100 		sd	ra,8(sp)
 163 00e4 23308100 		sd	s0,0(sp)
 164              		.cfi_offset 1, -8
 165              		.cfi_offset 8, -16
 166 00e8 13040101 		addi	s0,sp,16
 167              		.cfi_def_cfa 8, 0
 168 00ec 13850500 		mv	a0,a1
 169              	.LVL13:
  46:src/SemDescription.cpp ****         thr->status = PCB::ThreadStatus::READY;
 170              		.loc 1 46 9 is_stmt 1
 171              		.loc 1 46 21 is_stmt 0
 172 00f0 93071000 		li	a5,1
 173 00f4 23ACF502 		sw	a5,56(a1)
  47:src/SemDescription.cpp ****         Scheduler::put(thr);
 174              		.loc 1 47 9 is_stmt 1
 175              		.loc 1 47 23 is_stmt 0
 176 00f8 97000000 		call	_ZN9Scheduler3putEP3PCB@plt
 176      E7800000 
 177              	.LVL14:
  48:src/SemDescription.cpp ****         return 0;
 178              		.loc 1 48 9 is_stmt 1
 179              		.loc 1 48 16 is_stmt 0
 180 0100 13050000 		li	a0,0
  49:src/SemDescription.cpp ****     }else return -1;
  50:src/SemDescription.cpp **** }
 181              		.loc 1 50 1
 182 0104 83308100 		ld	ra,8(sp)
 183              		.cfi_restore 1
 184 0108 03340100 		ld	s0,0(sp)
 185              		.cfi_restore 8
 186              		.cfi_def_cfa 2, 16
 187 010c 13010101 		addi	sp,sp,16
 188              		.cfi_def_cfa_offset 0
 189 0110 67800000 		jr	ra
 190              	.LVL15:
 191              	.L19:
  49:src/SemDescription.cpp ****     }else return -1;
 192              		.loc 1 49 19
 193 0114 1305F0FF 		li	a0,-1
 194              	.LVL16:
 195              		.loc 1 50 1
 196 0118 67800000 		ret
 197              		.cfi_endproc
 198              	.LFE47:
 200              		.align	2
 201              		.globl	_ZN14SemDescription6signalEv
 203              	_ZN14SemDescription6signalEv:
 204              	.LFB44:
  16:src/SemDescription.cpp ****     if(isClosed) return -1;
 205              		.loc 1 16 30 is_stmt 1
 206              		.cfi_startproc
 207              	.LVL17:
  17:src/SemDescription.cpp ****     if(++val <= 0){
 208              		.loc 1 17 5
  17:src/SemDescription.cpp ****     if(++val <= 0){
 209              		.loc 1 17 8 is_stmt 0
 210 011c 83470502 		lbu	a5,32(a0)
GAS LISTING /tmp/ccTlVi86.s 			page 6


  17:src/SemDescription.cpp ****     if(++val <= 0){
 211              		.loc 1 17 5
 212 0120 63960706 		bnez	a5,.L26
  16:src/SemDescription.cpp ****     if(isClosed) return -1;
 213              		.loc 1 16 30
 214 0124 130101FE 		addi	sp,sp,-32
 215              		.cfi_def_cfa_offset 32
 216 0128 233C1100 		sd	ra,24(sp)
 217 012c 23388100 		sd	s0,16(sp)
 218 0130 23349100 		sd	s1,8(sp)
 219              		.cfi_offset 1, -8
 220              		.cfi_offset 8, -16
 221              		.cfi_offset 9, -24
 222 0134 13040102 		addi	s0,sp,32
 223              		.cfi_def_cfa 8, 0
 224 0138 93040500 		mv	s1,a0
  18:src/SemDescription.cpp ****         PCB* thread = blocked.get();
 225              		.loc 1 18 5 is_stmt 1
 226              	.LBB5:
  18:src/SemDescription.cpp ****         PCB* thread = blocked.get();
 227              		.loc 1 18 10 is_stmt 0
 228 013c 83270500 		lw	a5,0(a0)
  18:src/SemDescription.cpp ****         PCB* thread = blocked.get();
 229              		.loc 1 18 8
 230 0140 9B871700 		addiw	a5,a5,1
 231 0144 1B870700 		sext.w	a4,a5
  18:src/SemDescription.cpp ****         PCB* thread = blocked.get();
 232              		.loc 1 18 14
 233 0148 2320F500 		sw	a5,0(a0)
  18:src/SemDescription.cpp ****         PCB* thread = blocked.get();
 234              		.loc 1 18 5
 235 014c 635EE000 		blez	a4,.L32
 236              	.LBE5:
  22:src/SemDescription.cpp **** }
 237              		.loc 1 22 12
 238 0150 13050000 		li	a0,0
 239              	.LVL18:
 240              	.L25:
  23:src/SemDescription.cpp **** 
 241              		.loc 1 23 1
 242 0154 83308101 		ld	ra,24(sp)
 243              		.cfi_remember_state
 244              		.cfi_restore 1
 245 0158 03340101 		ld	s0,16(sp)
 246              		.cfi_restore 8
 247              		.cfi_def_cfa 2, 32
 248 015c 83348100 		ld	s1,8(sp)
 249              		.cfi_restore 9
 250              	.LVL19:
 251 0160 13010102 		addi	sp,sp,32
 252              		.cfi_def_cfa_offset 0
 253 0164 67800000 		jr	ra
 254              	.LVL20:
 255              	.L32:
 256              		.cfi_restore_state
 257              	.LBB7:
 258              	.LBB6:
GAS LISTING /tmp/ccTlVi86.s 			page 7


  19:src/SemDescription.cpp ****         unblock(thread);
 259              		.loc 1 19 9 is_stmt 1
  19:src/SemDescription.cpp ****         unblock(thread);
 260              		.loc 1 19 34 is_stmt 0
 261 0168 13058500 		addi	a0,a0,8
 262 016c 97000000 		call	_ZN5Queue3getEv@plt
 262      E7800000 
 263              	.LVL21:
 264 0174 93050500 		mv	a1,a0
 265              	.LVL22:
  20:src/SemDescription.cpp ****     }
 266              		.loc 1 20 9 is_stmt 1
  20:src/SemDescription.cpp ****     }
 267              		.loc 1 20 16 is_stmt 0
 268 0178 13850400 		mv	a0,s1
 269              	.LVL23:
 270 017c 97000000 		call	_ZN14SemDescription7unblockEP3PCB
 270      E7800000 
 271              	.LVL24:
 272              	.LBE6:
 273              	.LBE7:
  22:src/SemDescription.cpp **** }
 274              		.loc 1 22 12
 275 0184 13050000 		li	a0,0
 276              	.LBB8:
 277 0188 6FF0DFFC 		j	.L25
 278              	.LVL25:
 279              	.L26:
 280              		.cfi_def_cfa_register 2
 281              		.cfi_restore 1
 282              		.cfi_restore 8
 283              		.cfi_restore 9
 284              	.LBE8:
  17:src/SemDescription.cpp ****     if(++val <= 0){
 285              		.loc 1 17 26
 286 018c 1305F0FF 		li	a0,-1
 287              	.LVL26:
  23:src/SemDescription.cpp **** 
 288              		.loc 1 23 1
 289 0190 67800000 		ret
 290              		.cfi_endproc
 291              	.LFE44:
 293              		.align	2
 294              		.globl	_ZN14SemDescription5closeEv
 296              	_ZN14SemDescription5closeEv:
 297              	.LFB45:
  25:src/SemDescription.cpp ****     if(isClosed) return -1;
 298              		.loc 1 25 29 is_stmt 1
 299              		.cfi_startproc
 300              	.LVL27:
  26:src/SemDescription.cpp ****     isClosed = true;
 301              		.loc 1 26 5
  26:src/SemDescription.cpp ****     isClosed = true;
 302              		.loc 1 26 8 is_stmt 0
 303 0194 83470502 		lbu	a5,32(a0)
  26:src/SemDescription.cpp ****     isClosed = true;
 304              		.loc 1 26 5
GAS LISTING /tmp/ccTlVi86.s 			page 8


 305 0198 63940706 		bnez	a5,.L37
  25:src/SemDescription.cpp ****     if(isClosed) return -1;
 306              		.loc 1 25 29
 307 019c 130101FE 		addi	sp,sp,-32
 308              		.cfi_def_cfa_offset 32
 309 01a0 233C1100 		sd	ra,24(sp)
 310 01a4 23388100 		sd	s0,16(sp)
 311 01a8 23349100 		sd	s1,8(sp)
 312              		.cfi_offset 1, -8
 313              		.cfi_offset 8, -16
 314              		.cfi_offset 9, -24
 315 01ac 13040102 		addi	s0,sp,32
 316              		.cfi_def_cfa 8, 0
 317 01b0 93040500 		mv	s1,a0
  27:src/SemDescription.cpp ****     while(blocked.size() > 0){
 318              		.loc 1 27 5 is_stmt 1
  27:src/SemDescription.cpp ****     while(blocked.size() > 0){
 319              		.loc 1 27 14 is_stmt 0
 320 01b4 93071000 		li	a5,1
 321 01b8 2300F502 		sb	a5,32(a0)
 322 01bc 6F000002 		j	.L36
 323              	.LVL28:
 324              	.L42:
 325              	.LBB9:
  29:src/SemDescription.cpp ****         unblock(thread);
 326              		.loc 1 29 9 is_stmt 1
  29:src/SemDescription.cpp ****         unblock(thread);
 327              		.loc 1 29 34 is_stmt 0
 328 01c0 13858400 		addi	a0,s1,8
 329 01c4 97000000 		call	_ZN5Queue3getEv@plt
 329      E7800000 
 330              	.LVL29:
 331 01cc 93050500 		mv	a1,a0
 332              	.LVL30:
  30:src/SemDescription.cpp ****     }
 333              		.loc 1 30 9 is_stmt 1
  30:src/SemDescription.cpp ****     }
 334              		.loc 1 30 16 is_stmt 0
 335 01d0 13850400 		mv	a0,s1
 336              	.LVL31:
 337 01d4 97000000 		call	_ZN14SemDescription7unblockEP3PCB
 337      E7800000 
 338              	.LVL32:
 339              	.L36:
 340              	.LBE9:
  28:src/SemDescription.cpp ****         PCB* thread = blocked.get();
 341              		.loc 1 28 5 is_stmt 1
  28:src/SemDescription.cpp ****         PCB* thread = blocked.get();
 342              		.loc 1 28 26
 343              	.LBB10:
 344              	.LBB11:
 345              		.file 2 "src/../h/Queue.hpp"
   1:src/../h/Queue.hpp **** //
   2:src/../h/Queue.hpp **** // Created by os on 8/13/22.
   3:src/../h/Queue.hpp **** //
   4:src/../h/Queue.hpp **** 
   5:src/../h/Queue.hpp **** #ifndef PROJECT_BASE_QUEUE_HPP
GAS LISTING /tmp/ccTlVi86.s 			page 9


   6:src/../h/Queue.hpp **** #define PROJECT_BASE_QUEUE_HPP
   7:src/../h/Queue.hpp **** 
   8:src/../h/Queue.hpp **** #include "PCB.hpp"
   9:src/../h/Queue.hpp **** 
  10:src/../h/Queue.hpp **** class Queue {
  11:src/../h/Queue.hpp **** public:
  12:src/../h/Queue.hpp ****     struct Elem
  13:src/../h/Queue.hpp ****     {
  14:src/../h/Queue.hpp ****         PCB *data;
  15:src/../h/Queue.hpp ****         Elem *next;
  16:src/../h/Queue.hpp **** 
  17:src/../h/Queue.hpp ****         Elem(PCB *data, Elem *next) : data(data), next(next) {}
  18:src/../h/Queue.hpp **** 
  19:src/../h/Queue.hpp ****         void *operator new(size_t size) { return MemoryAllocator::mem_alloc(size); }
  20:src/../h/Queue.hpp ****         void operator delete(void *ptr) { MemoryAllocator::mem_free(ptr); }
  21:src/../h/Queue.hpp ****     };
  22:src/../h/Queue.hpp **** 
  23:src/../h/Queue.hpp ****     Elem *head, *tail;
  24:src/../h/Queue.hpp ****     int counter;
  25:src/../h/Queue.hpp **** 
  26:src/../h/Queue.hpp ****     Queue() : head(nullptr), tail(nullptr), counter(0) {}
  27:src/../h/Queue.hpp **** 
  28:src/../h/Queue.hpp ****     int size() const { return counter; }
 346              		.loc 2 28 24
 347              		.loc 2 28 31 is_stmt 0
 348 01dc 83A78401 		lw	a5,24(s1)
 349              	.LVL33:
 350              	.LBE11:
 351              	.LBE10:
  28:src/SemDescription.cpp ****         PCB* thread = blocked.get();
 352              		.loc 1 28 26
 353 01e0 E340F0FE 		bgtz	a5,.L42
  32:src/SemDescription.cpp ****     return 0;
 354              		.loc 1 32 5 is_stmt 1
  32:src/SemDescription.cpp ****     return 0;
 355              		.loc 1 32 9 is_stmt 0
 356 01e4 23A00400 		sw	zero,0(s1)
  33:src/SemDescription.cpp **** }
 357              		.loc 1 33 5 is_stmt 1
  33:src/SemDescription.cpp **** }
 358              		.loc 1 33 12 is_stmt 0
 359 01e8 13050000 		li	a0,0
  34:src/SemDescription.cpp **** 
 360              		.loc 1 34 1
 361 01ec 83308101 		ld	ra,24(sp)
 362              		.cfi_restore 1
 363 01f0 03340101 		ld	s0,16(sp)
 364              		.cfi_restore 8
 365              		.cfi_def_cfa 2, 32
 366 01f4 83348100 		ld	s1,8(sp)
 367              		.cfi_restore 9
 368              	.LVL34:
 369 01f8 13010102 		addi	sp,sp,32
 370              		.cfi_def_cfa_offset 0
 371 01fc 67800000 		jr	ra
 372              	.LVL35:
 373              	.L37:
GAS LISTING /tmp/ccTlVi86.s 			page 10


  26:src/SemDescription.cpp ****     isClosed = true;
 374              		.loc 1 26 26
 375 0200 1305F0FF 		li	a0,-1
 376              	.LVL36:
  34:src/SemDescription.cpp **** 
 377              		.loc 1 34 1
 378 0204 67800000 		ret
 379              		.cfi_endproc
 380              	.LFE45:
 382              	.Letext0:
 383              		.file 3 "src/../h/../lib/hw.h"
 384              		.file 4 "src/../h/PCB.hpp"
 385              		.file 5 "src/../h/Scheduler.hpp"
 386              		.file 6 "src/../h/syscall_c.h"
 387              		.file 7 "src/../h/SemDescription.hpp"
GAS LISTING /tmp/ccTlVi86.s 			page 11

