GAS LISTING /tmp/ccytju3V.s 			page 1


   1              		.file	"Thread.cpp"
   2              		.option pic
   3              		.option norelax
   4              		.text
   5              	.Ltext0:
   6              		.section	.text._ZN6Thread3runEv,"axG",@progbits,_ZN6Thread3runEv,comdat
   7              		.align	2
   8              		.weak	_ZN6Thread3runEv
  10              	_ZN6Thread3runEv:
  11              	.LFB0:
  12              		.file 1 "src/../h/syscall_cpp.hpp"
   1:src/../h/syscall_cpp.hpp **** //
   2:src/../h/syscall_cpp.hpp **** // Created by os on 6/30/22.
   3:src/../h/syscall_cpp.hpp **** //
   4:src/../h/syscall_cpp.hpp **** 
   5:src/../h/syscall_cpp.hpp **** #ifndef PROJECT_BASE_SYSCALL_CPP_HPP
   6:src/../h/syscall_cpp.hpp **** #define PROJECT_BASE_SYSCALL_CPP_HPP
   7:src/../h/syscall_cpp.hpp **** #include "syscall_c.h"
   8:src/../h/syscall_cpp.hpp **** 
   9:src/../h/syscall_cpp.hpp **** 
  10:src/../h/syscall_cpp.hpp **** void* operator new(size_t);
  11:src/../h/syscall_cpp.hpp **** void operator delete(void*);
  12:src/../h/syscall_cpp.hpp **** 
  13:src/../h/syscall_cpp.hpp **** class Thread {
  14:src/../h/syscall_cpp.hpp ****         public:
  15:src/../h/syscall_cpp.hpp ****         Thread (void (*body)(void*), void* arg);
  16:src/../h/syscall_cpp.hpp ****         virtual ~Thread ();
  17:src/../h/syscall_cpp.hpp ****         int start ();
  18:src/../h/syscall_cpp.hpp ****         static void dispatch ();
  19:src/../h/syscall_cpp.hpp ****         static int sleep (time_t);
  20:src/../h/syscall_cpp.hpp ****         static void threadWrapper(void* arg); //mogu da se dodaju staticki metodi
  21:src/../h/syscall_cpp.hpp ****         static int getThreadId();
  22:src/../h/syscall_cpp.hpp ****         void join();
  23:src/../h/syscall_cpp.hpp ****         protected:
  24:src/../h/syscall_cpp.hpp ****         Thread ();
  25:src/../h/syscall_cpp.hpp ****         virtual void run () {}
  13              		.loc 1 25 22
  14              		.cfi_startproc
  15              	.LVL0:
  16 0000 130101FF 		addi	sp,sp,-16
  17              		.cfi_def_cfa_offset 16
  18 0004 23348100 		sd	s0,8(sp)
  19              		.cfi_offset 8, -8
  20 0008 13040101 		addi	s0,sp,16
  21              		.cfi_def_cfa 8, 0
  22              		.loc 1 25 30 is_stmt 0
  23 000c 03348100 		ld	s0,8(sp)
  24              		.cfi_restore 8
  25              		.cfi_def_cfa 2, 16
  26 0010 13010101 		addi	sp,sp,16
  27              		.cfi_def_cfa_offset 0
  28 0014 67800000 		jr	ra
  29              		.cfi_endproc
  30              	.LFE0:
  32              		.text
  33              		.align	2
  34              		.globl	_ZN6Thread13threadWrapperEPv
GAS LISTING /tmp/ccytju3V.s 			page 2


  36              	_ZN6Thread13threadWrapperEPv:
  37              	.LFB14:
  38              		.file 2 "src/Thread.cpp"
   1:src/Thread.cpp **** //
   2:src/Thread.cpp **** // Created by os on 8/11/22.
   3:src/Thread.cpp **** //
   4:src/Thread.cpp **** #include "../h/syscall_cpp.hpp"
   5:src/Thread.cpp **** 
   6:src/Thread.cpp **** Thread::Thread (void (*body)(void*), void* arg){
   7:src/Thread.cpp ****     thread_create_without_start(&myHandle, body, arg);
   8:src/Thread.cpp **** }
   9:src/Thread.cpp **** Thread::~Thread(){
  10:src/Thread.cpp ****     thread_delete(myHandle);
  11:src/Thread.cpp **** }
  12:src/Thread.cpp **** Thread::Thread() {
  13:src/Thread.cpp ****     thread_create_without_start(&myHandle, Thread::threadWrapper, this); //za this se pokrece run
  14:src/Thread.cpp **** }
  15:src/Thread.cpp **** 
  16:src/Thread.cpp **** void Thread::dispatch() {
  17:src/Thread.cpp ****     thread_dispatch();
  18:src/Thread.cpp **** }
  19:src/Thread.cpp **** 
  20:src/Thread.cpp **** int Thread::start() {
  21:src/Thread.cpp ****     return thread_start(myHandle);
  22:src/Thread.cpp **** }
  23:src/Thread.cpp **** 
  24:src/Thread.cpp **** void Thread::threadWrapper(void *arg) {
  39              		.loc 2 24 39 is_stmt 1
  40              		.cfi_startproc
  41              	.LVL1:
  42 0000 130101FF 		addi	sp,sp,-16
  43              		.cfi_def_cfa_offset 16
  44 0004 23341100 		sd	ra,8(sp)
  45 0008 23308100 		sd	s0,0(sp)
  46              		.cfi_offset 1, -8
  47              		.cfi_offset 8, -16
  48 000c 13040101 		addi	s0,sp,16
  49              		.cfi_def_cfa 8, 0
  25:src/Thread.cpp ****     ((Thread*)arg)->run();
  50              		.loc 2 25 5
  51              		.loc 2 25 25 is_stmt 0
  52 0010 83370500 		ld	a5,0(a0)
  53 0014 83B70701 		ld	a5,16(a5)
  54              		.loc 2 25 24
  55 0018 E7800700 		jalr	a5
  56              	.LVL2:
  26:src/Thread.cpp **** }
  57              		.loc 2 26 1
  58 001c 83308100 		ld	ra,8(sp)
  59              		.cfi_restore 1
  60 0020 03340100 		ld	s0,0(sp)
  61              		.cfi_restore 8
  62              		.cfi_def_cfa 2, 16
  63 0024 13010101 		addi	sp,sp,16
  64              		.cfi_def_cfa_offset 0
  65 0028 67800000 		jr	ra
  66              		.cfi_endproc
GAS LISTING /tmp/ccytju3V.s 			page 3


  67              	.LFE14:
  69              		.align	2
  70              		.globl	_ZN6ThreadD2Ev
  72              	_ZN6ThreadD2Ev:
  73              	.LFB6:
   9:src/Thread.cpp ****     thread_delete(myHandle);
  74              		.loc 2 9 1 is_stmt 1
  75              		.cfi_startproc
  76              		.cfi_personality 0x9b,DW.ref.__gxx_personality_v0
  77              		.cfi_lsda 0x1b,.LLSDA6
  78              	.LVL3:
  79 002c 130101FF 		addi	sp,sp,-16
  80              		.cfi_def_cfa_offset 16
  81 0030 23341100 		sd	ra,8(sp)
  82 0034 23308100 		sd	s0,0(sp)
  83              		.cfi_offset 1, -8
  84              		.cfi_offset 8, -16
  85 0038 13040101 		addi	s0,sp,16
  86              		.cfi_def_cfa 8, 0
  87              	.LBB2:
   9:src/Thread.cpp ****     thread_delete(myHandle);
  88              		.loc 2 9 17 is_stmt 0
  89 003c 97070000 		lla	a5,_ZTV6Thread+16
  89      93870700 
  90 0044 2330F500 		sd	a5,0(a0)
  10:src/Thread.cpp **** }
  91              		.loc 2 10 5 is_stmt 1
  10:src/Thread.cpp **** }
  92              		.loc 2 10 18 is_stmt 0
  93 0048 03358500 		ld	a0,8(a0)
  94              	.LVL4:
  95 004c 97000000 		call	_Z13thread_deleteP3PCB@plt
  95      E7800000 
  96              	.LVL5:
  97              	.LBE2:
  11:src/Thread.cpp **** Thread::Thread() {
  98              		.loc 2 11 1
  99 0054 83308100 		ld	ra,8(sp)
 100              		.cfi_restore 1
 101 0058 03340100 		ld	s0,0(sp)
 102              		.cfi_restore 8
 103              		.cfi_def_cfa 2, 16
 104 005c 13010101 		addi	sp,sp,16
 105              		.cfi_def_cfa_offset 0
 106 0060 67800000 		jr	ra
 107              		.cfi_endproc
 108              	.LFE6:
 109              		.globl	__gxx_personality_v0
 110              		.section	.gcc_except_table,"a",@progbits
 111              	.LLSDA6:
 112 0000 FF       		.byte	0xff
 113 0001 FF       		.byte	0xff
 114 0002 03       		.byte	0x3
 115 0003 00       		.byte	0
 116              		.text
 118              		.globl	_ZN6ThreadD1Ev
 119              		.set	_ZN6ThreadD1Ev,_ZN6ThreadD2Ev
GAS LISTING /tmp/ccytju3V.s 			page 4


 120              		.align	2
 121              		.globl	_ZN6ThreadD0Ev
 123              	_ZN6ThreadD0Ev:
 124              	.LFB8:
   9:src/Thread.cpp ****     thread_delete(myHandle);
 125              		.loc 2 9 1 is_stmt 1
 126              		.cfi_startproc
 127              	.LVL6:
 128 0064 130101FE 		addi	sp,sp,-32
 129              		.cfi_def_cfa_offset 32
 130 0068 233C1100 		sd	ra,24(sp)
 131 006c 23388100 		sd	s0,16(sp)
 132 0070 23349100 		sd	s1,8(sp)
 133              		.cfi_offset 1, -8
 134              		.cfi_offset 8, -16
 135              		.cfi_offset 9, -24
 136 0074 13040102 		addi	s0,sp,32
 137              		.cfi_def_cfa 8, 0
 138 0078 93040500 		mv	s1,a0
  11:src/Thread.cpp **** Thread::Thread() {
 139              		.loc 2 11 1 is_stmt 0
 140 007c 97000000 		call	_ZN6ThreadD1Ev
 140      E7800000 
 141              	.LVL7:
 142 0084 13850400 		mv	a0,s1
 143 0088 97000000 		call	_ZdlPv@plt
 143      E7800000 
 144              	.LVL8:
 145 0090 83308101 		ld	ra,24(sp)
 146              		.cfi_restore 1
 147 0094 03340101 		ld	s0,16(sp)
 148              		.cfi_restore 8
 149              		.cfi_def_cfa 2, 32
 150 0098 83348100 		ld	s1,8(sp)
 151              		.cfi_restore 9
 152              	.LVL9:
 153 009c 13010102 		addi	sp,sp,32
 154              		.cfi_def_cfa_offset 0
 155 00a0 67800000 		jr	ra
 156              		.cfi_endproc
 157              	.LFE8:
 159              		.align	2
 160              		.globl	_ZN6ThreadC2EPFvPvES0_
 162              	_ZN6ThreadC2EPFvPvES0_:
 163              	.LFB3:
   6:src/Thread.cpp ****     thread_create_without_start(&myHandle, body, arg);
 164              		.loc 2 6 1 is_stmt 1
 165              		.cfi_startproc
 166              	.LVL10:
 167 00a4 130101FF 		addi	sp,sp,-16
 168              		.cfi_def_cfa_offset 16
 169 00a8 23341100 		sd	ra,8(sp)
 170 00ac 23308100 		sd	s0,0(sp)
 171              		.cfi_offset 1, -8
 172              		.cfi_offset 8, -16
 173 00b0 13040101 		addi	s0,sp,16
 174              		.cfi_def_cfa 8, 0
GAS LISTING /tmp/ccytju3V.s 			page 5


 175              	.LBB3:
   6:src/Thread.cpp ****     thread_create_without_start(&myHandle, body, arg);
 176              		.loc 2 6 47 is_stmt 0
 177 00b4 97070000 		lla	a5,_ZTV6Thread+16
 177      93870700 
 178 00bc 2330F500 		sd	a5,0(a0)
   7:src/Thread.cpp **** }
 179              		.loc 2 7 5 is_stmt 1
   7:src/Thread.cpp **** }
 180              		.loc 2 7 32 is_stmt 0
 181 00c0 13058500 		addi	a0,a0,8
 182              	.LVL11:
 183 00c4 97000000 		call	_Z27thread_create_without_startPP3PCBPFvPvES2_@plt
 183      E7800000 
 184              	.LVL12:
 185              	.LBE3:
   8:src/Thread.cpp **** Thread::~Thread(){
 186              		.loc 2 8 1
 187 00cc 83308100 		ld	ra,8(sp)
 188              		.cfi_restore 1
 189 00d0 03340100 		ld	s0,0(sp)
 190              		.cfi_restore 8
 191              		.cfi_def_cfa 2, 16
 192 00d4 13010101 		addi	sp,sp,16
 193              		.cfi_def_cfa_offset 0
 194 00d8 67800000 		jr	ra
 195              		.cfi_endproc
 196              	.LFE3:
 198              		.globl	_ZN6ThreadC1EPFvPvES0_
 199              		.set	_ZN6ThreadC1EPFvPvES0_,_ZN6ThreadC2EPFvPvES0_
 200              		.align	2
 201              		.globl	_ZN6ThreadC2Ev
 203              	_ZN6ThreadC2Ev:
 204              	.LFB10:
  12:src/Thread.cpp ****     thread_create_without_start(&myHandle, Thread::threadWrapper, this); //za this se pokrece run
 205              		.loc 2 12 1 is_stmt 1
 206              		.cfi_startproc
 207              	.LVL13:
 208 00dc 130101FF 		addi	sp,sp,-16
 209              		.cfi_def_cfa_offset 16
 210 00e0 23341100 		sd	ra,8(sp)
 211 00e4 23308100 		sd	s0,0(sp)
 212              		.cfi_offset 1, -8
 213              		.cfi_offset 8, -16
 214 00e8 13040101 		addi	s0,sp,16
 215              		.cfi_def_cfa 8, 0
 216              	.LBB4:
  12:src/Thread.cpp ****     thread_create_without_start(&myHandle, Thread::threadWrapper, this); //za this se pokrece run
 217              		.loc 2 12 16 is_stmt 0
 218 00ec 97070000 		lla	a5,_ZTV6Thread+16
 218      93870700 
 219 00f4 2330F500 		sd	a5,0(a0)
  13:src/Thread.cpp **** }
 220              		.loc 2 13 5 is_stmt 1
  13:src/Thread.cpp **** }
 221              		.loc 2 13 32 is_stmt 0
 222 00f8 13060500 		mv	a2,a0
GAS LISTING /tmp/ccytju3V.s 			page 6


 223 00fc 97050000 		lla	a1,_ZN6Thread13threadWrapperEPv
 223      93850500 
 224 0104 13058500 		addi	a0,a0,8
 225              	.LVL14:
 226 0108 97000000 		call	_Z27thread_create_without_startPP3PCBPFvPvES2_@plt
 226      E7800000 
 227              	.LVL15:
 228              	.LBE4:
  14:src/Thread.cpp **** 
 229              		.loc 2 14 1
 230 0110 83308100 		ld	ra,8(sp)
 231              		.cfi_restore 1
 232 0114 03340100 		ld	s0,0(sp)
 233              		.cfi_restore 8
 234              		.cfi_def_cfa 2, 16
 235 0118 13010101 		addi	sp,sp,16
 236              		.cfi_def_cfa_offset 0
 237 011c 67800000 		jr	ra
 238              		.cfi_endproc
 239              	.LFE10:
 241              		.globl	_ZN6ThreadC1Ev
 242              		.set	_ZN6ThreadC1Ev,_ZN6ThreadC2Ev
 243              		.align	2
 244              		.globl	_ZN6Thread8dispatchEv
 246              	_ZN6Thread8dispatchEv:
 247              	.LFB12:
  16:src/Thread.cpp ****     thread_dispatch();
 248              		.loc 2 16 25 is_stmt 1
 249              		.cfi_startproc
 250 0120 130101FF 		addi	sp,sp,-16
 251              		.cfi_def_cfa_offset 16
 252 0124 23341100 		sd	ra,8(sp)
 253 0128 23308100 		sd	s0,0(sp)
 254              		.cfi_offset 1, -8
 255              		.cfi_offset 8, -16
 256 012c 13040101 		addi	s0,sp,16
 257              		.cfi_def_cfa 8, 0
  17:src/Thread.cpp **** }
 258              		.loc 2 17 5
  17:src/Thread.cpp **** }
 259              		.loc 2 17 20 is_stmt 0
 260 0130 97000000 		call	_Z15thread_dispatchv@plt
 260      E7800000 
 261              	.LVL16:
  18:src/Thread.cpp **** 
 262              		.loc 2 18 1
 263 0138 83308100 		ld	ra,8(sp)
 264              		.cfi_restore 1
 265 013c 03340100 		ld	s0,0(sp)
 266              		.cfi_restore 8
 267              		.cfi_def_cfa 2, 16
 268 0140 13010101 		addi	sp,sp,16
 269              		.cfi_def_cfa_offset 0
 270 0144 67800000 		jr	ra
 271              		.cfi_endproc
 272              	.LFE12:
 274              		.align	2
GAS LISTING /tmp/ccytju3V.s 			page 7


 275              		.globl	_ZN6Thread5startEv
 277              	_ZN6Thread5startEv:
 278              	.LFB13:
  20:src/Thread.cpp ****     return thread_start(myHandle);
 279              		.loc 2 20 21 is_stmt 1
 280              		.cfi_startproc
 281              	.LVL17:
 282 0148 130101FF 		addi	sp,sp,-16
 283              		.cfi_def_cfa_offset 16
 284 014c 23341100 		sd	ra,8(sp)
 285 0150 23308100 		sd	s0,0(sp)
 286              		.cfi_offset 1, -8
 287              		.cfi_offset 8, -16
 288 0154 13040101 		addi	s0,sp,16
 289              		.cfi_def_cfa 8, 0
  21:src/Thread.cpp **** }
 290              		.loc 2 21 5
  21:src/Thread.cpp **** }
 291              		.loc 2 21 24 is_stmt 0
 292 0158 03358500 		ld	a0,8(a0)
 293              	.LVL18:
 294 015c 97000000 		call	_Z12thread_startP3PCB@plt
 294      E7800000 
 295              	.LVL19:
  22:src/Thread.cpp **** 
 296              		.loc 2 22 1
 297 0164 83308100 		ld	ra,8(sp)
 298              		.cfi_restore 1
 299 0168 03340100 		ld	s0,0(sp)
 300              		.cfi_restore 8
 301              		.cfi_def_cfa 2, 16
 302 016c 13010101 		addi	sp,sp,16
 303              		.cfi_def_cfa_offset 0
 304 0170 67800000 		jr	ra
 305              		.cfi_endproc
 306              	.LFE13:
 308              		.align	2
 309              		.globl	_ZN6Thread11getThreadIdEv
 311              	_ZN6Thread11getThreadIdEv:
 312              	.LFB15:
  27:src/Thread.cpp **** 
  28:src/Thread.cpp **** int Thread::getThreadId() {
 313              		.loc 2 28 27 is_stmt 1
 314              		.cfi_startproc
 315 0174 130101FF 		addi	sp,sp,-16
 316              		.cfi_def_cfa_offset 16
 317 0178 23341100 		sd	ra,8(sp)
 318 017c 23308100 		sd	s0,0(sp)
 319              		.cfi_offset 1, -8
 320              		.cfi_offset 8, -16
 321 0180 13040101 		addi	s0,sp,16
 322              		.cfi_def_cfa 8, 0
  29:src/Thread.cpp ****     return get_thread_id();
 323              		.loc 2 29 5
 324              		.loc 2 29 25 is_stmt 0
 325 0184 97000000 		call	_Z13get_thread_idv@plt
 325      E7800000 
GAS LISTING /tmp/ccytju3V.s 			page 8


 326              	.LVL20:
  30:src/Thread.cpp **** }
 327              		.loc 2 30 1
 328 018c 83308100 		ld	ra,8(sp)
 329              		.cfi_restore 1
 330 0190 03340100 		ld	s0,0(sp)
 331              		.cfi_restore 8
 332              		.cfi_def_cfa 2, 16
 333 0194 13010101 		addi	sp,sp,16
 334              		.cfi_def_cfa_offset 0
 335 0198 67800000 		jr	ra
 336              		.cfi_endproc
 337              	.LFE15:
 339              		.align	2
 340              		.globl	_ZN6Thread4joinEv
 342              	_ZN6Thread4joinEv:
 343              	.LFB16:
  31:src/Thread.cpp **** 
  32:src/Thread.cpp **** void Thread::join() {
 344              		.loc 2 32 21 is_stmt 1
 345              		.cfi_startproc
 346              	.LVL21:
 347 019c 130101FF 		addi	sp,sp,-16
 348              		.cfi_def_cfa_offset 16
 349 01a0 23341100 		sd	ra,8(sp)
 350 01a4 23308100 		sd	s0,0(sp)
 351              		.cfi_offset 1, -8
 352              		.cfi_offset 8, -16
 353 01a8 13040101 		addi	s0,sp,16
 354              		.cfi_def_cfa 8, 0
  33:src/Thread.cpp ****     thread_join(&myHandle);
 355              		.loc 2 33 5
 356              		.loc 2 33 16 is_stmt 0
 357 01ac 13058500 		addi	a0,a0,8
 358              	.LVL22:
 359 01b0 97000000 		call	_Z11thread_joinPP3PCB@plt
 359      E7800000 
 360              	.LVL23:
  34:src/Thread.cpp **** }
 361              		.loc 2 34 1
 362 01b8 83308100 		ld	ra,8(sp)
 363              		.cfi_restore 1
 364 01bc 03340100 		ld	s0,0(sp)
 365              		.cfi_restore 8
 366              		.cfi_def_cfa 2, 16
 367 01c0 13010101 		addi	sp,sp,16
 368              		.cfi_def_cfa_offset 0
 369 01c4 67800000 		jr	ra
 370              		.cfi_endproc
 371              	.LFE16:
 373              		.weak	_ZTV6Thread
 374              		.section	.data.rel.ro.local._ZTV6Thread,"awG",@progbits,_ZTV6Thread,comdat
 375              		.align	3
 378              	_ZTV6Thread:
 379 0000 00000000 		.dword	0
 379      00000000 
 380 0008 00000000 		.dword	0
GAS LISTING /tmp/ccytju3V.s 			page 9


 380      00000000 
 381 0010 00000000 		.dword	_ZN6ThreadD1Ev
 381      00000000 
 382 0018 00000000 		.dword	_ZN6ThreadD0Ev
 382      00000000 
 383 0020 00000000 		.dword	_ZN6Thread3runEv
 383      00000000 
 384              		.text
 385              	.Letext0:
 386              		.file 3 "src/../h/../lib/hw.h"
 387              		.file 4 "src/../h/syscall_c.h"
 2086              		.align	3
 2089              	DW.ref.__gxx_personality_v0:
 2090 0000 00000000 		.dword	__gxx_personality_v0
 2090      00000000 
 2091              		.ident	"GCC: (Ubuntu 9.4.0-1ubuntu1~20.04) 9.4.0"
 2092              		.section	.note.GNU-stack,"",@progbits
GAS LISTING /tmp/ccytju3V.s 			page 10


DEFINED SYMBOLS
                            *ABS*:0000000000000000 Thread.cpp
     /tmp/ccytju3V.s:10     .text._ZN6Thread3runEv:0000000000000000 _ZN6Thread3runEv
     /tmp/ccytju3V.s:14     .text._ZN6Thread3runEv:0000000000000000 .L0 
     /tmp/ccytju3V.s:16     .text._ZN6Thread3runEv:0000000000000000 .L0 
     /tmp/ccytju3V.s:17     .text._ZN6Thread3runEv:0000000000000004 .L0 
     /tmp/ccytju3V.s:19     .text._ZN6Thread3runEv:0000000000000008 .L0 
     /tmp/ccytju3V.s:21     .text._ZN6Thread3runEv:000000000000000c .L0 
     /tmp/ccytju3V.s:23     .text._ZN6Thread3runEv:000000000000000c .L0 
     /tmp/ccytju3V.s:24     .text._ZN6Thread3runEv:0000000000000010 .L0 
     /tmp/ccytju3V.s:25     .text._ZN6Thread3runEv:0000000000000010 .L0 
     /tmp/ccytju3V.s:27     .text._ZN6Thread3runEv:0000000000000014 .L0 
     /tmp/ccytju3V.s:29     .text._ZN6Thread3runEv:0000000000000018 .L0 
     /tmp/ccytju3V.s:36     .text:0000000000000000 _ZN6Thread13threadWrapperEPv
     /tmp/ccytju3V.s:40     .text:0000000000000000 .L0 
     /tmp/ccytju3V.s:42     .text:0000000000000000 .L0 
     /tmp/ccytju3V.s:43     .text:0000000000000004 .L0 
     /tmp/ccytju3V.s:46     .text:000000000000000c .L0 
     /tmp/ccytju3V.s:47     .text:000000000000000c .L0 
     /tmp/ccytju3V.s:49     .text:0000000000000010 .L0 
     /tmp/ccytju3V.s:51     .text:0000000000000010 .L0 
     /tmp/ccytju3V.s:52     .text:0000000000000010 .L0 
     /tmp/ccytju3V.s:55     .text:0000000000000018 .L0 
     /tmp/ccytju3V.s:58     .text:000000000000001c .L0 
     /tmp/ccytju3V.s:59     .text:0000000000000020 .L0 
     /tmp/ccytju3V.s:61     .text:0000000000000024 .L0 
     /tmp/ccytju3V.s:62     .text:0000000000000024 .L0 
     /tmp/ccytju3V.s:64     .text:0000000000000028 .L0 
     /tmp/ccytju3V.s:66     .text:000000000000002c .L0 
     /tmp/ccytju3V.s:72     .text:000000000000002c _ZN6ThreadD2Ev
     /tmp/ccytju3V.s:75     .text:000000000000002c .L0 
     /tmp/ccytju3V.s:2089   .data.rel.local.DW.ref.__gxx_personality_v0:0000000000000000 DW.ref.__gxx_personality_v0
     /tmp/ccytju3V.s:79     .text:000000000000002c .L0 
     /tmp/ccytju3V.s:80     .text:0000000000000030 .L0 
     /tmp/ccytju3V.s:83     .text:0000000000000038 .L0 
     /tmp/ccytju3V.s:84     .text:0000000000000038 .L0 
     /tmp/ccytju3V.s:86     .text:000000000000003c .L0 
     /tmp/ccytju3V.s:378    .data.rel.ro.local._ZTV6Thread:0000000000000000 _ZTV6Thread
     /tmp/ccytju3V.s:89     .text:000000000000003c .L0 
     /tmp/ccytju3V.s:92     .text:0000000000000048 .L0 
     /tmp/ccytju3V.s:93     .text:0000000000000048 .L0 
     /tmp/ccytju3V.s:99     .text:0000000000000054 .L0 
     /tmp/ccytju3V.s:100    .text:0000000000000058 .L0 
     /tmp/ccytju3V.s:102    .text:000000000000005c .L0 
     /tmp/ccytju3V.s:103    .text:000000000000005c .L0 
     /tmp/ccytju3V.s:105    .text:0000000000000060 .L0 
     /tmp/ccytju3V.s:107    .text:0000000000000064 .L0 
     /tmp/ccytju3V.s:72     .text:000000000000002c _ZN6ThreadD1Ev
     /tmp/ccytju3V.s:123    .text:0000000000000064 _ZN6ThreadD0Ev
     /tmp/ccytju3V.s:126    .text:0000000000000064 .L0 
     /tmp/ccytju3V.s:128    .text:0000000000000064 .L0 
     /tmp/ccytju3V.s:129    .text:0000000000000068 .L0 
     /tmp/ccytju3V.s:133    .text:0000000000000074 .L0 
     /tmp/ccytju3V.s:134    .text:0000000000000074 .L0 
     /tmp/ccytju3V.s:135    .text:0000000000000074 .L0 
     /tmp/ccytju3V.s:137    .text:0000000000000078 .L0 
     /tmp/ccytju3V.s:140    .text:000000000000007c .L0 
GAS LISTING /tmp/ccytju3V.s 			page 11


     /tmp/ccytju3V.s:146    .text:0000000000000094 .L0 
     /tmp/ccytju3V.s:148    .text:0000000000000098 .L0 
     /tmp/ccytju3V.s:149    .text:0000000000000098 .L0 
     /tmp/ccytju3V.s:151    .text:000000000000009c .L0 
     /tmp/ccytju3V.s:154    .text:00000000000000a0 .L0 
     /tmp/ccytju3V.s:156    .text:00000000000000a4 .L0 
     /tmp/ccytju3V.s:162    .text:00000000000000a4 _ZN6ThreadC2EPFvPvES0_
     /tmp/ccytju3V.s:165    .text:00000000000000a4 .L0 
     /tmp/ccytju3V.s:167    .text:00000000000000a4 .L0 
     /tmp/ccytju3V.s:168    .text:00000000000000a8 .L0 
     /tmp/ccytju3V.s:171    .text:00000000000000b0 .L0 
     /tmp/ccytju3V.s:172    .text:00000000000000b0 .L0 
     /tmp/ccytju3V.s:174    .text:00000000000000b4 .L0 
     /tmp/ccytju3V.s:177    .text:00000000000000b4 .L0 
     /tmp/ccytju3V.s:180    .text:00000000000000c0 .L0 
     /tmp/ccytju3V.s:181    .text:00000000000000c0 .L0 
     /tmp/ccytju3V.s:187    .text:00000000000000cc .L0 
     /tmp/ccytju3V.s:188    .text:00000000000000d0 .L0 
     /tmp/ccytju3V.s:190    .text:00000000000000d4 .L0 
     /tmp/ccytju3V.s:191    .text:00000000000000d4 .L0 
     /tmp/ccytju3V.s:193    .text:00000000000000d8 .L0 
     /tmp/ccytju3V.s:195    .text:00000000000000dc .L0 
     /tmp/ccytju3V.s:162    .text:00000000000000a4 _ZN6ThreadC1EPFvPvES0_
     /tmp/ccytju3V.s:203    .text:00000000000000dc _ZN6ThreadC2Ev
     /tmp/ccytju3V.s:206    .text:00000000000000dc .L0 
     /tmp/ccytju3V.s:208    .text:00000000000000dc .L0 
     /tmp/ccytju3V.s:209    .text:00000000000000e0 .L0 
     /tmp/ccytju3V.s:212    .text:00000000000000e8 .L0 
     /tmp/ccytju3V.s:213    .text:00000000000000e8 .L0 
     /tmp/ccytju3V.s:215    .text:00000000000000ec .L0 
     /tmp/ccytju3V.s:218    .text:00000000000000ec .L0 
     /tmp/ccytju3V.s:221    .text:00000000000000f8 .L0 
     /tmp/ccytju3V.s:222    .text:00000000000000f8 .L0 
     /tmp/ccytju3V.s:230    .text:0000000000000110 .L0 
     /tmp/ccytju3V.s:231    .text:0000000000000114 .L0 
     /tmp/ccytju3V.s:233    .text:0000000000000118 .L0 
     /tmp/ccytju3V.s:234    .text:0000000000000118 .L0 
     /tmp/ccytju3V.s:236    .text:000000000000011c .L0 
     /tmp/ccytju3V.s:238    .text:0000000000000120 .L0 
     /tmp/ccytju3V.s:203    .text:00000000000000dc _ZN6ThreadC1Ev
     /tmp/ccytju3V.s:246    .text:0000000000000120 _ZN6Thread8dispatchEv
     /tmp/ccytju3V.s:249    .text:0000000000000120 .L0 
     /tmp/ccytju3V.s:250    .text:0000000000000120 .L0 
     /tmp/ccytju3V.s:251    .text:0000000000000124 .L0 
     /tmp/ccytju3V.s:254    .text:000000000000012c .L0 
     /tmp/ccytju3V.s:255    .text:000000000000012c .L0 
     /tmp/ccytju3V.s:257    .text:0000000000000130 .L0 
     /tmp/ccytju3V.s:259    .text:0000000000000130 .L0 
     /tmp/ccytju3V.s:260    .text:0000000000000130 .L0 
     /tmp/ccytju3V.s:263    .text:0000000000000138 .L0 
     /tmp/ccytju3V.s:264    .text:000000000000013c .L0 
     /tmp/ccytju3V.s:266    .text:0000000000000140 .L0 
     /tmp/ccytju3V.s:267    .text:0000000000000140 .L0 
     /tmp/ccytju3V.s:269    .text:0000000000000144 .L0 
     /tmp/ccytju3V.s:271    .text:0000000000000148 .L0 
     /tmp/ccytju3V.s:277    .text:0000000000000148 _ZN6Thread5startEv
     /tmp/ccytju3V.s:280    .text:0000000000000148 .L0 
GAS LISTING /tmp/ccytju3V.s 			page 12


     /tmp/ccytju3V.s:282    .text:0000000000000148 .L0 
     /tmp/ccytju3V.s:283    .text:000000000000014c .L0 
     /tmp/ccytju3V.s:286    .text:0000000000000154 .L0 
     /tmp/ccytju3V.s:287    .text:0000000000000154 .L0 
     /tmp/ccytju3V.s:289    .text:0000000000000158 .L0 
     /tmp/ccytju3V.s:291    .text:0000000000000158 .L0 
     /tmp/ccytju3V.s:292    .text:0000000000000158 .L0 
     /tmp/ccytju3V.s:297    .text:0000000000000164 .L0 
     /tmp/ccytju3V.s:298    .text:0000000000000168 .L0 
     /tmp/ccytju3V.s:300    .text:000000000000016c .L0 
     /tmp/ccytju3V.s:301    .text:000000000000016c .L0 
     /tmp/ccytju3V.s:303    .text:0000000000000170 .L0 
     /tmp/ccytju3V.s:305    .text:0000000000000174 .L0 
     /tmp/ccytju3V.s:311    .text:0000000000000174 _ZN6Thread11getThreadIdEv
     /tmp/ccytju3V.s:314    .text:0000000000000174 .L0 
     /tmp/ccytju3V.s:315    .text:0000000000000174 .L0 
     /tmp/ccytju3V.s:316    .text:0000000000000178 .L0 
     /tmp/ccytju3V.s:319    .text:0000000000000180 .L0 
     /tmp/ccytju3V.s:320    .text:0000000000000180 .L0 
     /tmp/ccytju3V.s:322    .text:0000000000000184 .L0 
     /tmp/ccytju3V.s:324    .text:0000000000000184 .L0 
     /tmp/ccytju3V.s:325    .text:0000000000000184 .L0 
     /tmp/ccytju3V.s:328    .text:000000000000018c .L0 
     /tmp/ccytju3V.s:329    .text:0000000000000190 .L0 
     /tmp/ccytju3V.s:331    .text:0000000000000194 .L0 
     /tmp/ccytju3V.s:332    .text:0000000000000194 .L0 
     /tmp/ccytju3V.s:334    .text:0000000000000198 .L0 
     /tmp/ccytju3V.s:336    .text:000000000000019c .L0 
     /tmp/ccytju3V.s:342    .text:000000000000019c _ZN6Thread4joinEv
     /tmp/ccytju3V.s:345    .text:000000000000019c .L0 
     /tmp/ccytju3V.s:347    .text:000000000000019c .L0 
     /tmp/ccytju3V.s:348    .text:00000000000001a0 .L0 
     /tmp/ccytju3V.s:351    .text:00000000000001a8 .L0 
     /tmp/ccytju3V.s:352    .text:00000000000001a8 .L0 
     /tmp/ccytju3V.s:354    .text:00000000000001ac .L0 
     /tmp/ccytju3V.s:356    .text:00000000000001ac .L0 
     /tmp/ccytju3V.s:357    .text:00000000000001ac .L0 
     /tmp/ccytju3V.s:362    .text:00000000000001b8 .L0 
     /tmp/ccytju3V.s:363    .text:00000000000001bc .L0 
     /tmp/ccytju3V.s:365    .text:00000000000001c0 .L0 
     /tmp/ccytju3V.s:366    .text:00000000000001c0 .L0 
     /tmp/ccytju3V.s:368    .text:00000000000001c4 .L0 
     /tmp/ccytju3V.s:370    .text:00000000000001c8 .L0 
     /tmp/ccytju3V.s:32     .text._ZN6Thread3runEv:0000000000000018 .L0 
     /tmp/ccytju3V.s:388    .text:00000000000001c8 .L0 
     /tmp/ccytju3V.s:89     .text:000000000000003c .L0 
     /tmp/ccytju3V.s:177    .text:00000000000000b4 .L0 
     /tmp/ccytju3V.s:218    .text:00000000000000ec .L0 
     /tmp/ccytju3V.s:223    .text:00000000000000fc .L0 
     /tmp/ccytju3V.s:1055   .debug_abbrev:0000000000000000 .Ldebug_abbrev0
     /tmp/ccytju3V.s:2019   .debug_str:0000000000000224 .LASF48
     /tmp/ccytju3V.s:1995   .debug_str:000000000000016f .LASF49
     /tmp/ccytju3V.s:2049   .debug_str:00000000000003b0 .LASF50
     /tmp/ccytju3V.s:1941   .debug_ranges:0000000000000000 .Ldebug_ranges0
     /tmp/ccytju3V.s:1949   .debug_line:0000000000000000 .Ldebug_line0
     /tmp/ccytju3V.s:2025   .debug_str:0000000000000311 .LASF0
     /tmp/ccytju3V.s:2003   .debug_str:00000000000001b5 .LASF1
GAS LISTING /tmp/ccytju3V.s 			page 13


     /tmp/ccytju3V.s:2013   .debug_str:00000000000001fe .LASF2
     /tmp/ccytju3V.s:1967   .debug_str:000000000000009a .LASF4
     /tmp/ccytju3V.s:2001   .debug_str:00000000000001a3 .LASF3
     /tmp/ccytju3V.s:1957   .debug_str:0000000000000029 .LASF5
     /tmp/ccytju3V.s:2037   .debug_str:0000000000000356 .LASF6
     /tmp/ccytju3V.s:1955   .debug_str:0000000000000016 .LASF7
     /tmp/ccytju3V.s:1987   .debug_str:0000000000000130 .LASF8
     /tmp/ccytju3V.s:2039   .debug_str:000000000000035d .LASF9
     /tmp/ccytju3V.s:1965   .debug_str:000000000000008c .LASF10
     /tmp/ccytju3V.s:2081   .debug_str:00000000000004af .LASF11
     /tmp/ccytju3V.s:1989   .debug_str:0000000000000143 .LASF12
     /tmp/ccytju3V.s:2069   .debug_str:000000000000045b .LASF13
     /tmp/ccytju3V.s:2035   .debug_str:0000000000000346 .LASF14
     /tmp/ccytju3V.s:2007   .debug_str:00000000000001de .LASF15
     /tmp/ccytju3V.s:1977   .debug_str:00000000000000d8 .LASF16
     /tmp/ccytju3V.s:2041   .debug_str:000000000000036d .LASF17
     /tmp/ccytju3V.s:2043   .debug_str:0000000000000383 .LASF18
     /tmp/ccytju3V.s:2033   .debug_str:0000000000000341 .LASF19
     /tmp/ccytju3V.s:1993   .debug_str:0000000000000168 .LASF20
     /tmp/ccytju3V.s:2065   .debug_str:000000000000043d .LASF51
     /tmp/ccytju3V.s:1951   .debug_str:0000000000000000 .LASF52
     /tmp/ccytju3V.s:1981   .debug_str:00000000000000f3 .LASF22
     /tmp/ccytju3V.s:2009   .debug_str:00000000000001ea .LASF53
     /tmp/ccytju3V.s:2023   .debug_str:0000000000000302 .LASF54
     /tmp/ccytju3V.s:2027   .debug_str:000000000000031e .LASF55
     /tmp/ccytju3V.s:1973   .debug_str:00000000000000b6 .LASF56
     /tmp/ccytju3V.s:1953   .debug_str:000000000000000d .LASF57
     /tmp/ccytju3V.s:1997   .debug_str:000000000000017e .LASF58
     /tmp/ccytju3V.s:2075   .debug_str:0000000000000489 .LASF21
     /tmp/ccytju3V.s:2017   .debug_str:0000000000000211 .LASF23
     /tmp/ccytju3V.s:2031   .debug_str:0000000000000333 .LASF59
     /tmp/ccytju3V.s:1961   .debug_str:0000000000000040 .LASF60
     /tmp/ccytju3V.s:2067   .debug_str:000000000000044f .LASF61
     /tmp/ccytju3V.s:2021   .debug_str:00000000000002e8 .LASF62
     /tmp/ccytju3V.s:1979   .debug_str:00000000000000ee .LASF24
     /tmp/ccytju3V.s:2079   .debug_str:000000000000049d .LASF25
     /tmp/ccytju3V.s:1999   .debug_str:0000000000000194 .LASF26
     /tmp/ccytju3V.s:1985   .debug_str:000000000000011f .LASF63
     /tmp/ccytju3V.s:2055   .debug_str:00000000000003f1 .LASF64
     /tmp/ccytju3V.s:1971   .debug_str:00000000000000a6 .LASF65
     /tmp/ccytju3V.s:343    .text:000000000000019c .LFB16
     /tmp/ccytju3V.s:371    .text:00000000000001c8 .LFE16
     /tmp/ccytju3V.s:1969   .debug_str:00000000000000a1 .LASF27
     /tmp/ccytju3V.s:1780   .debug_loc:0000000000000000 .LLST8
     /tmp/ccytju3V.s:360    .text:00000000000001b8 .LVL23
     /tmp/ccytju3V.s:312    .text:0000000000000174 .LFB15
     /tmp/ccytju3V.s:337    .text:000000000000019c .LFE15
     /tmp/ccytju3V.s:326    .text:000000000000018c .LVL20
     /tmp/ccytju3V.s:37     .text:0000000000000000 .LFB14
     /tmp/ccytju3V.s:67     .text:000000000000002c .LFE14
     /tmp/ccytju3V.s:1800   .debug_loc:000000000000004e .LLST0
     /tmp/ccytju3V.s:56     .text:000000000000001c .LVL2
     /tmp/ccytju3V.s:278    .text:0000000000000148 .LFB13
     /tmp/ccytju3V.s:306    .text:0000000000000174 .LFE13
     /tmp/ccytju3V.s:1814   .debug_loc:0000000000000087 .LLST7
     /tmp/ccytju3V.s:295    .text:0000000000000164 .LVL19
     /tmp/ccytju3V.s:247    .text:0000000000000120 .LFB12
GAS LISTING /tmp/ccytju3V.s 			page 14


     /tmp/ccytju3V.s:272    .text:0000000000000148 .LFE12
     /tmp/ccytju3V.s:261    .text:0000000000000138 .LVL16
     /tmp/ccytju3V.s:2029   .debug_str:0000000000000324 .LASF29
     /tmp/ccytju3V.s:204    .text:00000000000000dc .LFB10
     /tmp/ccytju3V.s:239    .text:0000000000000120 .LFE10
     /tmp/ccytju3V.s:1828   .debug_loc:00000000000000c0 .LLST6
     /tmp/ccytju3V.s:227    .text:0000000000000110 .LVL15
     /tmp/ccytju3V.s:2057   .debug_str:00000000000003fa .LASF28
     /tmp/ccytju3V.s:1975   .debug_str:00000000000000c9 .LASF30
     /tmp/ccytju3V.s:124    .text:0000000000000064 .LFB8
     /tmp/ccytju3V.s:157    .text:00000000000000a4 .LFE8
     /tmp/ccytju3V.s:1846   .debug_loc:000000000000010c .LLST2
     /tmp/ccytju3V.s:141    .text:0000000000000084 .LVL7
     /tmp/ccytju3V.s:144    .text:0000000000000090 .LVL8
     /tmp/ccytju3V.s:2063   .debug_str:000000000000042e .LASF31
     /tmp/ccytju3V.s:73     .text:000000000000002c .LFB6
     /tmp/ccytju3V.s:108    .text:0000000000000064 .LFE6
     /tmp/ccytju3V.s:1864   .debug_loc:0000000000000158 .LLST1
     /tmp/ccytju3V.s:96     .text:0000000000000054 .LVL5
     /tmp/ccytju3V.s:2015   .debug_str:000000000000020c .LASF32
     /tmp/ccytju3V.s:2073   .debug_str:0000000000000472 .LASF33
     /tmp/ccytju3V.s:163    .text:00000000000000a4 .LFB3
     /tmp/ccytju3V.s:196    .text:00000000000000dc .LFE3
     /tmp/ccytju3V.s:1878   .debug_loc:0000000000000191 .LLST3
     /tmp/ccytju3V.s:1898   .debug_loc:00000000000001df .LLST4
     /tmp/ccytju3V.s:1912   .debug_loc:0000000000000218 .LLST5
     /tmp/ccytju3V.s:184    .text:00000000000000cc .LVL12
     /tmp/ccytju3V.s:11     .text._ZN6Thread3runEv:0000000000000000 .LFB0
     /tmp/ccytju3V.s:30     .text._ZN6Thread3runEv:0000000000000018 .LFE0
     /tmp/ccytju3V.s:1991   .debug_str:0000000000000152 .LASF34
     /tmp/ccytju3V.s:2011   .debug_str:00000000000001f2 .LASF36
     /tmp/ccytju3V.s:2053   .debug_str:00000000000003de .LASF35
     /tmp/ccytju3V.s:2077   .debug_str:000000000000048f .LASF37
     /tmp/ccytju3V.s:2005   .debug_str:00000000000001c8 .LASF38
     /tmp/ccytju3V.s:2047   .debug_str:00000000000003a3 .LASF39
     /tmp/ccytju3V.s:1983   .debug_str:000000000000010a .LASF40
     /tmp/ccytju3V.s:2051   .debug_str:00000000000003ce .LASF41
     /tmp/ccytju3V.s:1963   .debug_str:000000000000005d .LASF42
     /tmp/ccytju3V.s:2059   .debug_str:0000000000000404 .LASF43
     /tmp/ccytju3V.s:2071   .debug_str:000000000000046b .LASF44
     /tmp/ccytju3V.s:1959   .debug_str:0000000000000030 .LASF45
     /tmp/ccytju3V.s:2045   .debug_str:000000000000038c .LASF46
     /tmp/ccytju3V.s:2061   .debug_str:0000000000000420 .LASF47
     /tmp/ccytju3V.s:346    .text:000000000000019c .LVL21
     /tmp/ccytju3V.s:358    .text:00000000000001b0 .LVL22
     /tmp/ccytju3V.s:41     .text:0000000000000000 .LVL1
     /tmp/ccytju3V.s:281    .text:0000000000000148 .LVL17
     /tmp/ccytju3V.s:293    .text:000000000000015c .LVL18
     /tmp/ccytju3V.s:207    .text:00000000000000dc .LVL13
     /tmp/ccytju3V.s:225    .text:0000000000000108 .LVL14
     /tmp/ccytju3V.s:127    .text:0000000000000064 .LVL6
     /tmp/ccytju3V.s:152    .text:000000000000009c .LVL9
     /tmp/ccytju3V.s:78     .text:000000000000002c .LVL3
     /tmp/ccytju3V.s:94     .text:000000000000004c .LVL4
     /tmp/ccytju3V.s:166    .text:00000000000000a4 .LVL10
     /tmp/ccytju3V.s:182    .text:00000000000000c4 .LVL11
     /tmp/ccytju3V.s:389    .debug_info:0000000000000000 .Ldebug_info0
GAS LISTING /tmp/ccytju3V.s 			page 15


     /tmp/ccytju3V.s:5      .text:0000000000000000 .Ltext0
     /tmp/ccytju3V.s:385    .text:00000000000001c8 .Letext0
     /tmp/ccytju3V.s:111    .gcc_except_table:0000000000000000 .LLSDA6

UNDEFINED SYMBOLS
_Z13thread_deleteP3PCB
__gxx_personality_v0
_ZdlPv
_Z27thread_create_without_startPP3PCBPFvPvES2_
_Z15thread_dispatchv
_Z12thread_startP3PCB
_Z13get_thread_idv
_Z11thread_joinPP3PCB
