GAS LISTING /tmp/ccz7Twe1.s 			page 1


   1              		.file	"userMain.cpp"
   2              		.option pic
   3              		.option norelax
   4              		.text
   5              	.Ltext0:
   6              		.section	.text._ZN8ConsumerD2Ev,"axG",@progbits,_ZN8ConsumerD5Ev,comdat
   7              		.align	2
   8              		.weak	_ZN8ConsumerD2Ev
  10              	_ZN8ConsumerD2Ev:
  11              	.LFB63:
  12              		.file 1 "test/../test/ConsumerProducer_CPP_Sync_API_test.hpp"
   1:test/../test/ConsumerProducer_CPP_Sync_API_test.hpp **** //
   2:test/../test/ConsumerProducer_CPP_Sync_API_test.hpp **** // Created by os on 4/17/22.
   3:test/../test/ConsumerProducer_CPP_Sync_API_test.hpp **** //
   4:test/../test/ConsumerProducer_CPP_Sync_API_test.hpp **** 
   5:test/../test/ConsumerProducer_CPP_Sync_API_test.hpp **** #ifndef XV6_CONSUMERPRODUCER_CPP_Sync_API_TEST_H
   6:test/../test/ConsumerProducer_CPP_Sync_API_test.hpp **** #define XV6_CONSUMERPRODUCER_CPP_Sync_API_TEST_H
   7:test/../test/ConsumerProducer_CPP_Sync_API_test.hpp **** 
   8:test/../test/ConsumerProducer_CPP_Sync_API_test.hpp **** #include "../h/syscall_cpp.hpp"
   9:test/../test/ConsumerProducer_CPP_Sync_API_test.hpp **** 
  10:test/../test/ConsumerProducer_CPP_Sync_API_test.hpp **** #include "buffer_CPP_API.hpp"
  11:test/../test/ConsumerProducer_CPP_Sync_API_test.hpp **** 
  12:test/../test/ConsumerProducer_CPP_Sync_API_test.hpp **** Semaphore* waitForAll;
  13:test/../test/ConsumerProducer_CPP_Sync_API_test.hpp **** 
  14:test/../test/ConsumerProducer_CPP_Sync_API_test.hpp **** struct thread_data {
  15:test/../test/ConsumerProducer_CPP_Sync_API_test.hpp ****     int id;
  16:test/../test/ConsumerProducer_CPP_Sync_API_test.hpp ****     BufferCPP *buffer;
  17:test/../test/ConsumerProducer_CPP_Sync_API_test.hpp ****     Semaphore* wait;
  18:test/../test/ConsumerProducer_CPP_Sync_API_test.hpp **** };
  19:test/../test/ConsumerProducer_CPP_Sync_API_test.hpp **** 
  20:test/../test/ConsumerProducer_CPP_Sync_API_test.hpp **** volatile int threadEnd = 0;
  21:test/../test/ConsumerProducer_CPP_Sync_API_test.hpp **** 
  22:test/../test/ConsumerProducer_CPP_Sync_API_test.hpp **** class ProducerKeyboard:public Thread {
  23:test/../test/ConsumerProducer_CPP_Sync_API_test.hpp ****     thread_data* td;
  24:test/../test/ConsumerProducer_CPP_Sync_API_test.hpp ****     void producerKeyboard(void *arg);
  25:test/../test/ConsumerProducer_CPP_Sync_API_test.hpp **** public:
  26:test/../test/ConsumerProducer_CPP_Sync_API_test.hpp ****     ProducerKeyboard(thread_data* _td):Thread(), td(_td) {}
  27:test/../test/ConsumerProducer_CPP_Sync_API_test.hpp **** 
  28:test/../test/ConsumerProducer_CPP_Sync_API_test.hpp ****     void run() override {
  29:test/../test/ConsumerProducer_CPP_Sync_API_test.hpp ****         producerKeyboard(td);
  30:test/../test/ConsumerProducer_CPP_Sync_API_test.hpp ****     }
  31:test/../test/ConsumerProducer_CPP_Sync_API_test.hpp **** };
  32:test/../test/ConsumerProducer_CPP_Sync_API_test.hpp **** 
  33:test/../test/ConsumerProducer_CPP_Sync_API_test.hpp **** void ProducerKeyboard::producerKeyboard(void *arg) {
  34:test/../test/ConsumerProducer_CPP_Sync_API_test.hpp ****     struct thread_data *data = (struct thread_data *) arg;
  35:test/../test/ConsumerProducer_CPP_Sync_API_test.hpp **** 
  36:test/../test/ConsumerProducer_CPP_Sync_API_test.hpp ****     int key;
  37:test/../test/ConsumerProducer_CPP_Sync_API_test.hpp ****     int i = 0;
  38:test/../test/ConsumerProducer_CPP_Sync_API_test.hpp ****     while ((key = getc()) != 0x1b) {
  39:test/../test/ConsumerProducer_CPP_Sync_API_test.hpp ****         data->buffer->put(key);
  40:test/../test/ConsumerProducer_CPP_Sync_API_test.hpp ****         i++;
  41:test/../test/ConsumerProducer_CPP_Sync_API_test.hpp **** 
  42:test/../test/ConsumerProducer_CPP_Sync_API_test.hpp ****         if (i % (10 * data->id) == 0) {
  43:test/../test/ConsumerProducer_CPP_Sync_API_test.hpp ****             Thread::dispatch();
  44:test/../test/ConsumerProducer_CPP_Sync_API_test.hpp ****         }
  45:test/../test/ConsumerProducer_CPP_Sync_API_test.hpp ****     }
  46:test/../test/ConsumerProducer_CPP_Sync_API_test.hpp **** 
GAS LISTING /tmp/ccz7Twe1.s 			page 2


  47:test/../test/ConsumerProducer_CPP_Sync_API_test.hpp ****     threadEnd = 1;
  48:test/../test/ConsumerProducer_CPP_Sync_API_test.hpp ****     td->buffer->put('!');
  49:test/../test/ConsumerProducer_CPP_Sync_API_test.hpp **** 
  50:test/../test/ConsumerProducer_CPP_Sync_API_test.hpp ****     data->wait->signal();
  51:test/../test/ConsumerProducer_CPP_Sync_API_test.hpp **** }
  52:test/../test/ConsumerProducer_CPP_Sync_API_test.hpp **** 
  53:test/../test/ConsumerProducer_CPP_Sync_API_test.hpp **** class Producer:public Thread {
  54:test/../test/ConsumerProducer_CPP_Sync_API_test.hpp ****     thread_data* td;
  55:test/../test/ConsumerProducer_CPP_Sync_API_test.hpp ****     void producer(void *arg);
  56:test/../test/ConsumerProducer_CPP_Sync_API_test.hpp **** public:
  57:test/../test/ConsumerProducer_CPP_Sync_API_test.hpp ****     Producer(thread_data* _td):Thread(), td(_td) {}
  58:test/../test/ConsumerProducer_CPP_Sync_API_test.hpp **** 
  59:test/../test/ConsumerProducer_CPP_Sync_API_test.hpp ****     void run() override {
  60:test/../test/ConsumerProducer_CPP_Sync_API_test.hpp ****         producer(td);
  61:test/../test/ConsumerProducer_CPP_Sync_API_test.hpp ****     }
  62:test/../test/ConsumerProducer_CPP_Sync_API_test.hpp **** };
  63:test/../test/ConsumerProducer_CPP_Sync_API_test.hpp **** 
  64:test/../test/ConsumerProducer_CPP_Sync_API_test.hpp **** void Producer::producer(void *arg) {
  65:test/../test/ConsumerProducer_CPP_Sync_API_test.hpp ****     struct thread_data *data = (struct thread_data *) arg;
  66:test/../test/ConsumerProducer_CPP_Sync_API_test.hpp **** 
  67:test/../test/ConsumerProducer_CPP_Sync_API_test.hpp ****     int i = 0;
  68:test/../test/ConsumerProducer_CPP_Sync_API_test.hpp ****     while (!threadEnd) {
  69:test/../test/ConsumerProducer_CPP_Sync_API_test.hpp ****         data->buffer->put(data->id + '0');
  70:test/../test/ConsumerProducer_CPP_Sync_API_test.hpp ****         i++;
  71:test/../test/ConsumerProducer_CPP_Sync_API_test.hpp **** 
  72:test/../test/ConsumerProducer_CPP_Sync_API_test.hpp ****         if (i % (10 * data->id) == 0) {
  73:test/../test/ConsumerProducer_CPP_Sync_API_test.hpp ****             Thread::dispatch();
  74:test/../test/ConsumerProducer_CPP_Sync_API_test.hpp ****         }
  75:test/../test/ConsumerProducer_CPP_Sync_API_test.hpp ****     }
  76:test/../test/ConsumerProducer_CPP_Sync_API_test.hpp **** 
  77:test/../test/ConsumerProducer_CPP_Sync_API_test.hpp ****     data->wait->signal();
  78:test/../test/ConsumerProducer_CPP_Sync_API_test.hpp **** }
  79:test/../test/ConsumerProducer_CPP_Sync_API_test.hpp **** 
  80:test/../test/ConsumerProducer_CPP_Sync_API_test.hpp **** class Consumer:public Thread {
  13              		.loc 1 80 7
  14              		.cfi_startproc
  15              	.LVL0:
  16 0000 130101FF 		addi	sp,sp,-16
  17              		.cfi_def_cfa_offset 16
  18 0004 23341100 		sd	ra,8(sp)
  19 0008 23308100 		sd	s0,0(sp)
  20              		.cfi_offset 1, -8
  21              		.cfi_offset 8, -16
  22 000c 13040101 		addi	s0,sp,16
  23              		.cfi_def_cfa 8, 0
  24              	.LBB31:
  25              		.loc 1 80 7 is_stmt 0
  26 0010 97070000 		lla	a5,_ZTV8Consumer+16
  26      93870700 
  27 0018 2330F500 		sd	a5,0(a0)
  28 001c 97000000 		call	_ZN6ThreadD2Ev@plt
  28      E7800000 
  29              	.LVL1:
  30              	.LBE31:
  31 0024 83308100 		ld	ra,8(sp)
  32              		.cfi_restore 1
  33 0028 03340100 		ld	s0,0(sp)
GAS LISTING /tmp/ccz7Twe1.s 			page 3


  34              		.cfi_restore 8
  35              		.cfi_def_cfa 2, 16
  36 002c 13010101 		addi	sp,sp,16
  37              		.cfi_def_cfa_offset 0
  38 0030 67800000 		jr	ra
  39              		.cfi_endproc
  40              	.LFE63:
  42              		.weak	_ZN8ConsumerD1Ev
  43              		.set	_ZN8ConsumerD1Ev,_ZN8ConsumerD2Ev
  44              		.section	.text._ZN8ConsumerD0Ev,"axG",@progbits,_ZN8ConsumerD5Ev,comdat
  45              		.align	2
  46              		.weak	_ZN8ConsumerD0Ev
  48              	_ZN8ConsumerD0Ev:
  49              	.LFB65:
  50              		.loc 1 80 7 is_stmt 1
  51              		.cfi_startproc
  52              	.LVL2:
  53 0000 130101FE 		addi	sp,sp,-32
  54              		.cfi_def_cfa_offset 32
  55 0004 233C1100 		sd	ra,24(sp)
  56 0008 23388100 		sd	s0,16(sp)
  57 000c 23349100 		sd	s1,8(sp)
  58              		.cfi_offset 1, -8
  59              		.cfi_offset 8, -16
  60              		.cfi_offset 9, -24
  61 0010 13040102 		addi	s0,sp,32
  62              		.cfi_def_cfa 8, 0
  63 0014 93040500 		mv	s1,a0
  64              	.LVL3:
  65              	.LBB32:
  66              	.LBB33:
  67              		.loc 1 80 7 is_stmt 0
  68 0018 97070000 		lla	a5,_ZTV8Consumer+16
  68      93870700 
  69 0020 2330F500 		sd	a5,0(a0)
  70 0024 97000000 		call	_ZN6ThreadD2Ev@plt
  70      E7800000 
  71              	.LVL4:
  72              	.LBE33:
  73              	.LBE32:
  74 002c 13850400 		mv	a0,s1
  75 0030 97000000 		call	_ZdlPv@plt
  75      E7800000 
  76              	.LVL5:
  77 0038 83308101 		ld	ra,24(sp)
  78              		.cfi_restore 1
  79 003c 03340101 		ld	s0,16(sp)
  80              		.cfi_restore 8
  81              		.cfi_def_cfa 2, 32
  82 0040 83348100 		ld	s1,8(sp)
  83              		.cfi_restore 9
  84              	.LVL6:
  85 0044 13010102 		addi	sp,sp,32
  86              		.cfi_def_cfa_offset 0
  87 0048 67800000 		jr	ra
  88              		.cfi_endproc
  89              	.LFE65:
GAS LISTING /tmp/ccz7Twe1.s 			page 4


  91              		.section	.text._ZN8ProducerD2Ev,"axG",@progbits,_ZN8ProducerD5Ev,comdat
  92              		.align	2
  93              		.weak	_ZN8ProducerD2Ev
  95              	_ZN8ProducerD2Ev:
  96              	.LFB67:
  53:test/../test/ConsumerProducer_CPP_Sync_API_test.hpp ****     thread_data* td;
  97              		.loc 1 53 7 is_stmt 1
  98              		.cfi_startproc
  99              	.LVL7:
 100 0000 130101FF 		addi	sp,sp,-16
 101              		.cfi_def_cfa_offset 16
 102 0004 23341100 		sd	ra,8(sp)
 103 0008 23308100 		sd	s0,0(sp)
 104              		.cfi_offset 1, -8
 105              		.cfi_offset 8, -16
 106 000c 13040101 		addi	s0,sp,16
 107              		.cfi_def_cfa 8, 0
 108              	.LBB34:
  53:test/../test/ConsumerProducer_CPP_Sync_API_test.hpp ****     thread_data* td;
 109              		.loc 1 53 7 is_stmt 0
 110 0010 97070000 		lla	a5,_ZTV8Producer+16
 110      93870700 
 111 0018 2330F500 		sd	a5,0(a0)
 112 001c 97000000 		call	_ZN6ThreadD2Ev@plt
 112      E7800000 
 113              	.LVL8:
 114              	.LBE34:
 115 0024 83308100 		ld	ra,8(sp)
 116              		.cfi_restore 1
 117 0028 03340100 		ld	s0,0(sp)
 118              		.cfi_restore 8
 119              		.cfi_def_cfa 2, 16
 120 002c 13010101 		addi	sp,sp,16
 121              		.cfi_def_cfa_offset 0
 122 0030 67800000 		jr	ra
 123              		.cfi_endproc
 124              	.LFE67:
 126              		.weak	_ZN8ProducerD1Ev
 127              		.set	_ZN8ProducerD1Ev,_ZN8ProducerD2Ev
 128              		.section	.text._ZN8ProducerD0Ev,"axG",@progbits,_ZN8ProducerD5Ev,comdat
 129              		.align	2
 130              		.weak	_ZN8ProducerD0Ev
 132              	_ZN8ProducerD0Ev:
 133              	.LFB69:
  53:test/../test/ConsumerProducer_CPP_Sync_API_test.hpp ****     thread_data* td;
 134              		.loc 1 53 7 is_stmt 1
 135              		.cfi_startproc
 136              	.LVL9:
 137 0000 130101FE 		addi	sp,sp,-32
 138              		.cfi_def_cfa_offset 32
 139 0004 233C1100 		sd	ra,24(sp)
 140 0008 23388100 		sd	s0,16(sp)
 141 000c 23349100 		sd	s1,8(sp)
 142              		.cfi_offset 1, -8
 143              		.cfi_offset 8, -16
 144              		.cfi_offset 9, -24
 145 0010 13040102 		addi	s0,sp,32
GAS LISTING /tmp/ccz7Twe1.s 			page 5


 146              		.cfi_def_cfa 8, 0
 147 0014 93040500 		mv	s1,a0
 148              	.LVL10:
 149              	.LBB35:
 150              	.LBB36:
  53:test/../test/ConsumerProducer_CPP_Sync_API_test.hpp ****     thread_data* td;
 151              		.loc 1 53 7 is_stmt 0
 152 0018 97070000 		lla	a5,_ZTV8Producer+16
 152      93870700 
 153 0020 2330F500 		sd	a5,0(a0)
 154 0024 97000000 		call	_ZN6ThreadD2Ev@plt
 154      E7800000 
 155              	.LVL11:
 156              	.LBE36:
 157              	.LBE35:
 158 002c 13850400 		mv	a0,s1
 159 0030 97000000 		call	_ZdlPv@plt
 159      E7800000 
 160              	.LVL12:
 161 0038 83308101 		ld	ra,24(sp)
 162              		.cfi_restore 1
 163 003c 03340101 		ld	s0,16(sp)
 164              		.cfi_restore 8
 165              		.cfi_def_cfa 2, 32
 166 0040 83348100 		ld	s1,8(sp)
 167              		.cfi_restore 9
 168              	.LVL13:
 169 0044 13010102 		addi	sp,sp,32
 170              		.cfi_def_cfa_offset 0
 171 0048 67800000 		jr	ra
 172              		.cfi_endproc
 173              	.LFE69:
 175              		.section	.text._ZN16ProducerKeyboardD2Ev,"axG",@progbits,_ZN16ProducerKeyboardD5Ev,comdat
 176              		.align	2
 177              		.weak	_ZN16ProducerKeyboardD2Ev
 179              	_ZN16ProducerKeyboardD2Ev:
 180              	.LFB71:
  22:test/../test/ConsumerProducer_CPP_Sync_API_test.hpp ****     thread_data* td;
 181              		.loc 1 22 7 is_stmt 1
 182              		.cfi_startproc
 183              	.LVL14:
 184 0000 130101FF 		addi	sp,sp,-16
 185              		.cfi_def_cfa_offset 16
 186 0004 23341100 		sd	ra,8(sp)
 187 0008 23308100 		sd	s0,0(sp)
 188              		.cfi_offset 1, -8
 189              		.cfi_offset 8, -16
 190 000c 13040101 		addi	s0,sp,16
 191              		.cfi_def_cfa 8, 0
 192              	.LBB37:
  22:test/../test/ConsumerProducer_CPP_Sync_API_test.hpp ****     thread_data* td;
 193              		.loc 1 22 7 is_stmt 0
 194 0010 97070000 		lla	a5,_ZTV16ProducerKeyboard+16
 194      93870700 
 195 0018 2330F500 		sd	a5,0(a0)
 196 001c 97000000 		call	_ZN6ThreadD2Ev@plt
 196      E7800000 
GAS LISTING /tmp/ccz7Twe1.s 			page 6


 197              	.LVL15:
 198              	.LBE37:
 199 0024 83308100 		ld	ra,8(sp)
 200              		.cfi_restore 1
 201 0028 03340100 		ld	s0,0(sp)
 202              		.cfi_restore 8
 203              		.cfi_def_cfa 2, 16
 204 002c 13010101 		addi	sp,sp,16
 205              		.cfi_def_cfa_offset 0
 206 0030 67800000 		jr	ra
 207              		.cfi_endproc
 208              	.LFE71:
 210              		.weak	_ZN16ProducerKeyboardD1Ev
 211              		.set	_ZN16ProducerKeyboardD1Ev,_ZN16ProducerKeyboardD2Ev
 212              		.section	.text._ZN16ProducerKeyboardD0Ev,"axG",@progbits,_ZN16ProducerKeyboardD5Ev,comdat
 213              		.align	2
 214              		.weak	_ZN16ProducerKeyboardD0Ev
 216              	_ZN16ProducerKeyboardD0Ev:
 217              	.LFB73:
  22:test/../test/ConsumerProducer_CPP_Sync_API_test.hpp ****     thread_data* td;
 218              		.loc 1 22 7 is_stmt 1
 219              		.cfi_startproc
 220              	.LVL16:
 221 0000 130101FE 		addi	sp,sp,-32
 222              		.cfi_def_cfa_offset 32
 223 0004 233C1100 		sd	ra,24(sp)
 224 0008 23388100 		sd	s0,16(sp)
 225 000c 23349100 		sd	s1,8(sp)
 226              		.cfi_offset 1, -8
 227              		.cfi_offset 8, -16
 228              		.cfi_offset 9, -24
 229 0010 13040102 		addi	s0,sp,32
 230              		.cfi_def_cfa 8, 0
 231 0014 93040500 		mv	s1,a0
 232              	.LVL17:
 233              	.LBB38:
 234              	.LBB39:
  22:test/../test/ConsumerProducer_CPP_Sync_API_test.hpp ****     thread_data* td;
 235              		.loc 1 22 7 is_stmt 0
 236 0018 97070000 		lla	a5,_ZTV16ProducerKeyboard+16
 236      93870700 
 237 0020 2330F500 		sd	a5,0(a0)
 238 0024 97000000 		call	_ZN6ThreadD2Ev@plt
 238      E7800000 
 239              	.LVL18:
 240              	.LBE39:
 241              	.LBE38:
 242 002c 13850400 		mv	a0,s1
 243 0030 97000000 		call	_ZdlPv@plt
 243      E7800000 
 244              	.LVL19:
 245 0038 83308101 		ld	ra,24(sp)
 246              		.cfi_restore 1
 247 003c 03340101 		ld	s0,16(sp)
 248              		.cfi_restore 8
 249              		.cfi_def_cfa 2, 32
 250 0040 83348100 		ld	s1,8(sp)
GAS LISTING /tmp/ccz7Twe1.s 			page 7


 251              		.cfi_restore 9
 252              	.LVL20:
 253 0044 13010102 		addi	sp,sp,32
 254              		.cfi_def_cfa_offset 0
 255 0048 67800000 		jr	ra
 256              		.cfi_endproc
 257              	.LFE73:
 259              		.section	.text._ZN9WorkerCPPD2Ev,"axG",@progbits,_ZN9WorkerCPPD5Ev,comdat
 260              		.align	2
 261              		.weak	_ZN9WorkerCPPD2Ev
 263              	_ZN9WorkerCPPD2Ev:
 264              	.LFB59:
 265              		.file 2 "test/userMain.cpp"
   1:test/userMain.cpp **** //#include "../test/Threads_C_API_test.hpp" // zadatak 2, niti C API i sinhrona promena konteksta
   2:test/userMain.cpp **** //#include "../test/Threads_CPP_API_test.hpp" // zadatak 2., niti CPP API i sinhrona promena kontek
   3:test/userMain.cpp **** 
   4:test/userMain.cpp **** //#include "../test/ConsumerProducer_C_API_test.h" // zadatak 3., kompletan C API sa semaforima, si
   5:test/userMain.cpp **** #include "../test/ConsumerProducer_CPP_Sync_API_test.hpp" // zadatak 3., kompletan CPP API sa semaf
   6:test/userMain.cpp **** 
   7:test/userMain.cpp **** //#include "../test/ThreadSleep_C_API_test.hpp" // thread_sleep test C API
   8:test/userMain.cpp **** //#include "../test/ConsumerProducer_CPP_API_test.hpp" // zadatak 4. CPP API i asinhrona promena ko
   9:test/userMain.cpp **** 
  10:test/userMain.cpp **** #include "../h/PCB.hpp"
  11:test/userMain.cpp **** 
  12:test/userMain.cpp **** struct args{
  13:test/userMain.cpp ****     sem_t user_sem, mutex;
  14:test/userMain.cpp ****     char id;
  15:test/userMain.cpp **** };
  16:test/userMain.cpp **** 
  17:test/userMain.cpp **** const int workerNumber = 3;
  18:test/userMain.cpp **** const int workerCount = 10;
  19:test/userMain.cpp **** const int timeout = 5;
  20:test/userMain.cpp **** 
  21:test/userMain.cpp **** int testCnt = 0;
  22:test/userMain.cpp **** 
  23:test/userMain.cpp **** void worker(void* arg){
  24:test/userMain.cpp ****     args* a = (args*)(arg);
  25:test/userMain.cpp ****     for(int i = 0; i < workerCount; i++) {
  26:test/userMain.cpp ****         while(PCB::timeSliceCounter < timeout);
  27:test/userMain.cpp ****         testCnt++;
  28:test/userMain.cpp ****         PCB::timeSliceCounter = 0;
  29:test/userMain.cpp ****         if(testCnt == 15){
  30:test/userMain.cpp ****             sem_signal(a->user_sem);
  31:test/userMain.cpp ****             kill(PCB::running);
  32:test/userMain.cpp ****         }
  33:test/userMain.cpp ****         sem_wait(a->mutex); //atomicnost
  34:test/userMain.cpp **** 
  35:test/userMain.cpp ****         int id = get_thread_id();
  36:test/userMain.cpp ****         char w = a->id;
  37:test/userMain.cpp ****         putc(w);
  38:test/userMain.cpp ****         putc(':');
  39:test/userMain.cpp ****         printInt(id);
  40:test/userMain.cpp ****         putc(',');
  41:test/userMain.cpp ****         sem_signal(a->mutex);
  42:test/userMain.cpp ****     }
  43:test/userMain.cpp ****     sem_signal(a->user_sem);
  44:test/userMain.cpp ****     delete a;
GAS LISTING /tmp/ccz7Twe1.s 			page 8


  45:test/userMain.cpp **** }
  46:test/userMain.cpp **** 
  47:test/userMain.cpp **** void employer(void* arg){
  48:test/userMain.cpp ****     printString("Employer started!\n");
  49:test/userMain.cpp ****    // sem_t userSem = (sem_t)(arg);
  50:test/userMain.cpp ****     sem_t user_sem, mutex;
  51:test/userMain.cpp ****     sem_open(&user_sem, 0);
  52:test/userMain.cpp ****     sem_open(&mutex, 1);
  53:test/userMain.cpp ****     thread_t workers[workerNumber];
  54:test/userMain.cpp ****     for(int i = 0; i < workerNumber; i++){
  55:test/userMain.cpp ****         args* a = new args{user_sem, mutex, (char)('A' + i)};
  56:test/userMain.cpp ****         thread_create_without_start(&workers[i], worker, a);
  57:test/userMain.cpp ****     }
  58:test/userMain.cpp ****     for(int i = 0; i < workerNumber; i++){
  59:test/userMain.cpp ****         thread_start(workers[i]);
  60:test/userMain.cpp ****     }
  61:test/userMain.cpp ****    // wait_for_all();
  62:test/userMain.cpp ****     /*sem_wait(user_sem);
  63:test/userMain.cpp ****     sem_wait(user_sem);
  64:test/userMain.cpp ****     sem_wait(user_sem);*/
  65:test/userMain.cpp ****     thread_join(&workers[0]);
  66:test/userMain.cpp ****     thread_join(&workers[1]);
  67:test/userMain.cpp ****     thread_join(&workers[2]);
  68:test/userMain.cpp ****     putc('\n');
  69:test/userMain.cpp ****     printString("Employer finished!\n");
  70:test/userMain.cpp ****    // sem_signal(userSem);
  71:test/userMain.cpp **** }
  72:test/userMain.cpp **** 
  73:test/userMain.cpp **** Thread* workers[3];
  74:test/userMain.cpp **** 
  75:test/userMain.cpp **** struct targs{
  76:test/userMain.cpp ****     Semaphore* userSem;
  77:test/userMain.cpp ****     char id;
  78:test/userMain.cpp **** };
  79:test/userMain.cpp **** 
  80:test/userMain.cpp **** class WorkerCPP : public Thread{
 266              		.loc 2 80 7 is_stmt 1
 267              		.cfi_startproc
 268              	.LVL21:
 269 0000 130101FF 		addi	sp,sp,-16
 270              		.cfi_def_cfa_offset 16
 271 0004 23341100 		sd	ra,8(sp)
 272 0008 23308100 		sd	s0,0(sp)
 273              		.cfi_offset 1, -8
 274              		.cfi_offset 8, -16
 275 000c 13040101 		addi	s0,sp,16
 276              		.cfi_def_cfa 8, 0
 277              	.LBB40:
 278              		.loc 2 80 7 is_stmt 0
 279 0010 97070000 		lla	a5,_ZTV9WorkerCPP+16
 279      93870700 
 280 0018 2330F500 		sd	a5,0(a0)
 281 001c 97000000 		call	_ZN6ThreadD2Ev@plt
 281      E7800000 
 282              	.LVL22:
 283              	.LBE40:
 284 0024 83308100 		ld	ra,8(sp)
GAS LISTING /tmp/ccz7Twe1.s 			page 9


 285              		.cfi_restore 1
 286 0028 03340100 		ld	s0,0(sp)
 287              		.cfi_restore 8
 288              		.cfi_def_cfa 2, 16
 289 002c 13010101 		addi	sp,sp,16
 290              		.cfi_def_cfa_offset 0
 291 0030 67800000 		jr	ra
 292              		.cfi_endproc
 293              	.LFE59:
 295              		.weak	_ZN9WorkerCPPD1Ev
 296              		.set	_ZN9WorkerCPPD1Ev,_ZN9WorkerCPPD2Ev
 297              		.section	.text._ZN9WorkerCPPD0Ev,"axG",@progbits,_ZN9WorkerCPPD5Ev,comdat
 298              		.align	2
 299              		.weak	_ZN9WorkerCPPD0Ev
 301              	_ZN9WorkerCPPD0Ev:
 302              	.LFB61:
 303              		.loc 2 80 7 is_stmt 1
 304              		.cfi_startproc
 305              	.LVL23:
 306 0000 130101FE 		addi	sp,sp,-32
 307              		.cfi_def_cfa_offset 32
 308 0004 233C1100 		sd	ra,24(sp)
 309 0008 23388100 		sd	s0,16(sp)
 310 000c 23349100 		sd	s1,8(sp)
 311              		.cfi_offset 1, -8
 312              		.cfi_offset 8, -16
 313              		.cfi_offset 9, -24
 314 0010 13040102 		addi	s0,sp,32
 315              		.cfi_def_cfa 8, 0
 316 0014 93040500 		mv	s1,a0
 317              	.LVL24:
 318              	.LBB41:
 319              	.LBB42:
 320              		.loc 2 80 7 is_stmt 0
 321 0018 97070000 		lla	a5,_ZTV9WorkerCPP+16
 321      93870700 
 322 0020 2330F500 		sd	a5,0(a0)
 323 0024 97000000 		call	_ZN6ThreadD2Ev@plt
 323      E7800000 
 324              	.LVL25:
 325              	.LBE42:
 326              	.LBE41:
 327 002c 13850400 		mv	a0,s1
 328 0030 97000000 		call	_ZdlPv@plt
 328      E7800000 
 329              	.LVL26:
 330 0038 83308101 		ld	ra,24(sp)
 331              		.cfi_restore 1
 332 003c 03340101 		ld	s0,16(sp)
 333              		.cfi_restore 8
 334              		.cfi_def_cfa 2, 32
 335 0040 83348100 		ld	s1,8(sp)
 336              		.cfi_restore 9
 337              	.LVL27:
 338 0044 13010102 		addi	sp,sp,32
 339              		.cfi_def_cfa_offset 0
 340 0048 67800000 		jr	ra
GAS LISTING /tmp/ccz7Twe1.s 			page 10


 341              		.cfi_endproc
 342              	.LFE61:
 344              		.text
 345              		.align	2
 346              		.globl	_Z6workerPv
 348              	_Z6workerPv:
 349              	.LFB43:
  23:test/userMain.cpp ****     args* a = (args*)(arg);
 350              		.loc 2 23 23 is_stmt 1
 351              		.cfi_startproc
 352              	.LVL28:
 353 0000 130101FD 		addi	sp,sp,-48
 354              		.cfi_def_cfa_offset 48
 355 0004 23341102 		sd	ra,40(sp)
 356 0008 23308102 		sd	s0,32(sp)
 357 000c 233C9100 		sd	s1,24(sp)
 358 0010 23382101 		sd	s2,16(sp)
 359 0014 23343101 		sd	s3,8(sp)
 360              		.cfi_offset 1, -8
 361              		.cfi_offset 8, -16
 362              		.cfi_offset 9, -24
 363              		.cfi_offset 18, -32
 364              		.cfi_offset 19, -40
 365 0018 13040103 		addi	s0,sp,48
 366              		.cfi_def_cfa 8, 0
 367 001c 13090500 		mv	s2,a0
  24:test/userMain.cpp ****     for(int i = 0; i < workerCount; i++) {
 368              		.loc 2 24 5
 369              	.LVL29:
  25:test/userMain.cpp ****         while(PCB::timeSliceCounter < timeout);
 370              		.loc 2 25 5
 371              	.LBB43:
  25:test/userMain.cpp ****         while(PCB::timeSliceCounter < timeout);
 372              		.loc 2 25 13 is_stmt 0
 373 0020 93090000 		li	s3,0
 374 0024 6F004006 		j	.L21
 375              	.LVL30:
 376              	.L20:
 377              	.LBB44:
  33:test/userMain.cpp **** 
 378              		.loc 2 33 9 is_stmt 1 discriminator 2
  33:test/userMain.cpp **** 
 379              		.loc 2 33 17 is_stmt 0 discriminator 2
 380 0028 03358900 		ld	a0,8(s2)
 381 002c 97000000 		call	_Z8sem_waitP14SemDescription@plt
 381      E7800000 
 382              	.LVL31:
  35:test/userMain.cpp ****         char w = a->id;
 383              		.loc 2 35 9 is_stmt 1 discriminator 2
  35:test/userMain.cpp ****         char w = a->id;
 384              		.loc 2 35 31 is_stmt 0 discriminator 2
 385 0034 97000000 		call	_Z13get_thread_idv@plt
 385      E7800000 
 386              	.LVL32:
 387 003c 93040500 		mv	s1,a0
 388              	.LVL33:
  36:test/userMain.cpp ****         putc(w);
GAS LISTING /tmp/ccz7Twe1.s 			page 11


 389              		.loc 2 36 9 is_stmt 1 discriminator 2
  37:test/userMain.cpp ****         putc(':');
 390              		.loc 2 37 9 discriminator 2
  37:test/userMain.cpp ****         putc(':');
 391              		.loc 2 37 13 is_stmt 0 discriminator 2
 392 0040 03450901 		lbu	a0,16(s2)
 393 0044 97000000 		call	_Z4putcc@plt
 393      E7800000 
 394              	.LVL34:
  38:test/userMain.cpp ****         printInt(id);
 395              		.loc 2 38 9 is_stmt 1 discriminator 2
  38:test/userMain.cpp ****         printInt(id);
 396              		.loc 2 38 13 is_stmt 0 discriminator 2
 397 004c 1305A003 		li	a0,58
 398 0050 97000000 		call	_Z4putcc@plt
 398      E7800000 
 399              	.LVL35:
  39:test/userMain.cpp ****         putc(',');
 400              		.loc 2 39 9 is_stmt 1 discriminator 2
  39:test/userMain.cpp ****         putc(',');
 401              		.loc 2 39 17 is_stmt 0 discriminator 2
 402 0058 13060000 		li	a2,0
 403 005c 9305A000 		li	a1,10
 404 0060 13850400 		mv	a0,s1
 405 0064 97000000 		call	_Z8printIntiii@plt
 405      E7800000 
 406              	.LVL36:
  40:test/userMain.cpp ****         sem_signal(a->mutex);
 407              		.loc 2 40 9 is_stmt 1 discriminator 2
  40:test/userMain.cpp ****         sem_signal(a->mutex);
 408              		.loc 2 40 13 is_stmt 0 discriminator 2
 409 006c 1305C002 		li	a0,44
 410 0070 97000000 		call	_Z4putcc@plt
 410      E7800000 
 411              	.LVL37:
  41:test/userMain.cpp ****     }
 412              		.loc 2 41 9 is_stmt 1 discriminator 2
  41:test/userMain.cpp ****     }
 413              		.loc 2 41 19 is_stmt 0 discriminator 2
 414 0078 03358900 		ld	a0,8(s2)
 415 007c 97000000 		call	_Z10sem_signalP14SemDescription@plt
 415      E7800000 
 416              	.LVL38:
 417              	.LBE44:
  25:test/userMain.cpp ****         while(PCB::timeSliceCounter < timeout);
 418              		.loc 2 25 5 is_stmt 1 discriminator 2
 419 0084 9B891900 		addiw	s3,s3,1
 420              	.LVL39:
 421              	.L21:
  25:test/userMain.cpp ****         while(PCB::timeSliceCounter < timeout);
 422              		.loc 2 25 22 discriminator 1
 423 0088 93079000 		li	a5,9
 424 008c 63C43707 		bgt	s3,a5,.L18
 425              	.L19:
 426              	.LBB45:
  26:test/userMain.cpp ****         testCnt++;
 427              		.loc 2 26 9
GAS LISTING /tmp/ccz7Twe1.s 			page 12


  26:test/userMain.cpp ****         testCnt++;
 428              		.loc 2 26 37
 429 0090 97070000 		la	a5,_ZN3PCB16timeSliceCounterE
 429      83B70700 
 430 0098 03B70700 		ld	a4,0(a5)
 431 009c 93074000 		li	a5,4
 432 00a0 E3F8E7FE 		bleu	a4,a5,.L19
  27:test/userMain.cpp ****         PCB::timeSliceCounter = 0;
 433              		.loc 2 27 9
  27:test/userMain.cpp ****         PCB::timeSliceCounter = 0;
 434              		.loc 2 27 16 is_stmt 0
 435 00a4 17070000 		lla	a4,.LANCHOR0
 435      13070700 
 436 00ac 83270700 		lw	a5,0(a4)
 437 00b0 9B871700 		addiw	a5,a5,1
 438 00b4 9B860700 		sext.w	a3,a5
 439 00b8 2320F700 		sw	a5,0(a4)
  28:test/userMain.cpp ****         if(testCnt == 15){
 440              		.loc 2 28 9 is_stmt 1
  28:test/userMain.cpp ****         if(testCnt == 15){
 441              		.loc 2 28 31 is_stmt 0
 442 00bc 97070000 		la	a5,_ZN3PCB16timeSliceCounterE
 442      83B70700 
 443 00c4 23B00700 		sd	zero,0(a5)
  29:test/userMain.cpp ****             sem_signal(a->user_sem);
 444              		.loc 2 29 9 is_stmt 1
 445 00c8 9307F000 		li	a5,15
 446 00cc E39EF6F4 		bne	a3,a5,.L20
  30:test/userMain.cpp ****             kill(PCB::running);
 447              		.loc 2 30 13
  30:test/userMain.cpp ****             kill(PCB::running);
 448              		.loc 2 30 23 is_stmt 0
 449 00d0 03350900 		ld	a0,0(s2)
 450 00d4 97000000 		call	_Z10sem_signalP14SemDescription@plt
 450      E7800000 
 451              	.LVL40:
  31:test/userMain.cpp ****         }
 452              		.loc 2 31 13 is_stmt 1
  31:test/userMain.cpp ****         }
 453              		.loc 2 31 17 is_stmt 0
 454 00dc 97070000 		la	a5,_ZN3PCB7runningE
 454      83B70700 
 455 00e4 03B50700 		ld	a0,0(a5)
 456 00e8 97000000 		call	_Z4killP3PCB@plt
 456      E7800000 
 457              	.LVL41:
 458 00f0 6FF09FF3 		j	.L20
 459              	.L18:
 460              	.LBE45:
 461              	.LBE43:
  43:test/userMain.cpp ****     delete a;
 462              		.loc 2 43 5 is_stmt 1
  43:test/userMain.cpp ****     delete a;
 463              		.loc 2 43 15 is_stmt 0
 464 00f4 03350900 		ld	a0,0(s2)
 465 00f8 97000000 		call	_Z10sem_signalP14SemDescription@plt
 465      E7800000 
GAS LISTING /tmp/ccz7Twe1.s 			page 13


 466              	.LVL42:
  44:test/userMain.cpp **** }
 467              		.loc 2 44 5 is_stmt 1
  44:test/userMain.cpp **** }
 468              		.loc 2 44 13 is_stmt 0
 469 0100 63080900 		beqz	s2,.L17
  44:test/userMain.cpp **** }
 470              		.loc 2 44 12 discriminator 1
 471 0104 13050900 		mv	a0,s2
 472 0108 97000000 		call	_ZdlPv@plt
 472      E7800000 
 473              	.LVL43:
 474              	.L17:
  45:test/userMain.cpp **** 
 475              		.loc 2 45 1
 476 0110 83308102 		ld	ra,40(sp)
 477              		.cfi_restore 1
 478 0114 03340102 		ld	s0,32(sp)
 479              		.cfi_restore 8
 480              		.cfi_def_cfa 2, 48
 481 0118 83348101 		ld	s1,24(sp)
 482              		.cfi_restore 9
 483 011c 03390101 		ld	s2,16(sp)
 484              		.cfi_restore 18
 485              	.LVL44:
 486 0120 83398100 		ld	s3,8(sp)
 487              		.cfi_restore 19
 488              	.LVL45:
 489 0124 13010103 		addi	sp,sp,48
 490              		.cfi_def_cfa_offset 0
 491 0128 67800000 		jr	ra
 492              		.cfi_endproc
 493              	.LFE43:
 495              		.section	.text._ZN9WorkerCPP3runEv,"axG",@progbits,_ZN9WorkerCPP3runEv,comdat
 496              		.align	2
 497              		.weak	_ZN9WorkerCPP3runEv
 499              	_ZN9WorkerCPP3runEv:
 500              	.LFB48:
  81:test/userMain.cpp ****     targs* a;
  82:test/userMain.cpp **** 
  83:test/userMain.cpp **** public:
  84:test/userMain.cpp **** 
  85:test/userMain.cpp ****     WorkerCPP(targs* ar) : Thread(), a(ar){}
  86:test/userMain.cpp **** 
  87:test/userMain.cpp ****     void run() override{
 501              		.loc 2 87 10 is_stmt 1
 502              		.cfi_startproc
 503              	.LVL46:
 504 0000 130101FC 		addi	sp,sp,-64
 505              		.cfi_def_cfa_offset 64
 506 0004 233C1102 		sd	ra,56(sp)
 507 0008 23388102 		sd	s0,48(sp)
 508 000c 23349102 		sd	s1,40(sp)
 509 0010 23302103 		sd	s2,32(sp)
 510 0014 233C3101 		sd	s3,24(sp)
 511 0018 23384101 		sd	s4,16(sp)
 512 001c 23345101 		sd	s5,8(sp)
GAS LISTING /tmp/ccz7Twe1.s 			page 14


 513              		.cfi_offset 1, -8
 514              		.cfi_offset 8, -16
 515              		.cfi_offset 9, -24
 516              		.cfi_offset 18, -32
 517              		.cfi_offset 19, -40
 518              		.cfi_offset 20, -48
 519              		.cfi_offset 21, -56
 520 0020 13040104 		addi	s0,sp,64
 521              		.cfi_def_cfa 8, 0
 522 0024 130A0500 		mv	s4,a0
  88:test/userMain.cpp ****         for(int i = 0; i < 10; i++){
 523              		.loc 2 88 9
 524              	.LVL47:
 525              	.LBB46:
 526              		.loc 2 88 17 is_stmt 0
 527 0028 13090000 		li	s2,0
 528 002c 6F000004 		j	.L28
 529              	.LVL48:
 530              	.L27:
 531              	.LBB47:
  89:test/userMain.cpp ****             while(PCB::timeSliceCounter < 5);
  90:test/userMain.cpp ****             //PCB::timeSliceCounter = 0;
  91:test/userMain.cpp ****             int id = Thread::getThreadId();
  92:test/userMain.cpp ****             char w = a->id;
  93:test/userMain.cpp ****             if(w == 'A'){
  94:test/userMain.cpp ****                 workers[1]->join();
  95:test/userMain.cpp ****                 workers[2]->join();
  96:test/userMain.cpp ****             }
  97:test/userMain.cpp ****             Console::putc(w);
 532              		.loc 2 97 13 is_stmt 1 discriminator 2
 533              		.loc 2 97 26 is_stmt 0 discriminator 2
 534 0030 13850900 		mv	a0,s3
 535 0034 97000000 		call	_ZN7Console4putcEc@plt
 535      E7800000 
 536              	.LVL49:
  98:test/userMain.cpp ****             Console::putc(':');
 537              		.loc 2 98 13 is_stmt 1 discriminator 2
 538              		.loc 2 98 26 is_stmt 0 discriminator 2
 539 003c 1305A003 		li	a0,58
 540 0040 97000000 		call	_ZN7Console4putcEc@plt
 540      E7800000 
 541              	.LVL50:
  99:test/userMain.cpp ****             printInt(id);
 542              		.loc 2 99 13 is_stmt 1 discriminator 2
 543              		.loc 2 99 21 is_stmt 0 discriminator 2
 544 0048 13060000 		li	a2,0
 545 004c 9305A000 		li	a1,10
 546 0050 13850400 		mv	a0,s1
 547 0054 97000000 		call	_Z8printIntiii@plt
 547      E7800000 
 548              	.LVL51:
 100:test/userMain.cpp ****             Console::putc(',');
 549              		.loc 2 100 13 is_stmt 1 discriminator 2
 550              		.loc 2 100 26 is_stmt 0 discriminator 2
 551 005c 1305C002 		li	a0,44
 552 0060 97000000 		call	_ZN7Console4putcEc@plt
 552      E7800000 
GAS LISTING /tmp/ccz7Twe1.s 			page 15


 553              	.LVL52:
 554              	.LBE47:
  88:test/userMain.cpp ****             while(PCB::timeSliceCounter < 5);
 555              		.loc 2 88 9 is_stmt 1 discriminator 2
 556 0068 1B091900 		addiw	s2,s2,1
 557              	.LVL53:
 558              	.L28:
  88:test/userMain.cpp ****             while(PCB::timeSliceCounter < 5);
 559              		.loc 2 88 26 discriminator 1
 560 006c 93079000 		li	a5,9
 561 0070 63CC2705 		bgt	s2,a5,.L25
 562              	.L26:
 563              	.LBB48:
  89:test/userMain.cpp ****             //PCB::timeSliceCounter = 0;
 564              		.loc 2 89 13
  89:test/userMain.cpp ****             //PCB::timeSliceCounter = 0;
 565              		.loc 2 89 41
 566 0074 97070000 		la	a5,_ZN3PCB16timeSliceCounterE
 566      83B70700 
 567 007c 03B70700 		ld	a4,0(a5)
 568 0080 93074000 		li	a5,4
 569 0084 E3F8E7FE 		bleu	a4,a5,.L26
  91:test/userMain.cpp ****             char w = a->id;
 570              		.loc 2 91 13
  91:test/userMain.cpp ****             char w = a->id;
 571              		.loc 2 91 41 is_stmt 0
 572 0088 97000000 		call	_ZN6Thread11getThreadIdEv@plt
 572      E7800000 
 573              	.LVL54:
 574 0090 93040500 		mv	s1,a0
 575              	.LVL55:
  92:test/userMain.cpp ****             if(w == 'A'){
 576              		.loc 2 92 13 is_stmt 1
  92:test/userMain.cpp ****             if(w == 'A'){
 577              		.loc 2 92 22 is_stmt 0
 578 0094 83370A01 		ld	a5,16(s4)
  92:test/userMain.cpp ****             if(w == 'A'){
 579              		.loc 2 92 18
 580 0098 83C98700 		lbu	s3,8(a5)
 581              	.LVL56:
  93:test/userMain.cpp ****                 workers[1]->join();
 582              		.loc 2 93 13 is_stmt 1
 583 009c 93071004 		li	a5,65
 584 00a0 E398F9F8 		bne	s3,a5,.L27
  94:test/userMain.cpp ****                 workers[2]->join();
 585              		.loc 2 94 17
  94:test/userMain.cpp ****                 workers[2]->join();
 586              		.loc 2 94 26 is_stmt 0
 587 00a4 970A0000 		lla	s5,.LANCHOR0
 587      938A0A00 
  94:test/userMain.cpp ****                 workers[2]->join();
 588              		.loc 2 94 33
 589 00ac 03B50A01 		ld	a0,16(s5)
 590 00b0 97000000 		call	_ZN6Thread4joinEv@plt
 590      E7800000 
 591              	.LVL57:
  95:test/userMain.cpp ****             }
GAS LISTING /tmp/ccz7Twe1.s 			page 16


 592              		.loc 2 95 17 is_stmt 1
  95:test/userMain.cpp ****             }
 593              		.loc 2 95 33 is_stmt 0
 594 00b8 03B58A01 		ld	a0,24(s5)
 595 00bc 97000000 		call	_ZN6Thread4joinEv@plt
 595      E7800000 
 596              	.LVL58:
 597 00c4 6FF0DFF6 		j	.L27
 598              	.LVL59:
 599              	.L25:
 600              	.LBE48:
 601              	.LBE46:
 101:test/userMain.cpp ****         }
 102:test/userMain.cpp ****         a->userSem->signal();
 602              		.loc 2 102 9 is_stmt 1
 603 00c8 83370A01 		ld	a5,16(s4)
 604              		.loc 2 102 27 is_stmt 0
 605 00cc 03B50700 		ld	a0,0(a5)
 606 00d0 97000000 		call	_ZN9Semaphore6signalEv@plt
 606      E7800000 
 607              	.LVL60:
 103:test/userMain.cpp ****     }
 608              		.loc 2 103 5
 609 00d8 83308103 		ld	ra,56(sp)
 610              		.cfi_restore 1
 611 00dc 03340103 		ld	s0,48(sp)
 612              		.cfi_restore 8
 613              		.cfi_def_cfa 2, 64
 614 00e0 83348102 		ld	s1,40(sp)
 615              		.cfi_restore 9
 616 00e4 03390102 		ld	s2,32(sp)
 617              		.cfi_restore 18
 618              	.LVL61:
 619 00e8 83398101 		ld	s3,24(sp)
 620              		.cfi_restore 19
 621 00ec 033A0101 		ld	s4,16(sp)
 622              		.cfi_restore 20
 623              	.LVL62:
 624 00f0 833A8100 		ld	s5,8(sp)
 625              		.cfi_restore 21
 626 00f4 13010104 		addi	sp,sp,64
 627              		.cfi_def_cfa_offset 0
 628 00f8 67800000 		jr	ra
 629              		.cfi_endproc
 630              	.LFE48:
 632              		.text
 633              		.align	2
 634              		.globl	_ZN16ProducerKeyboard16producerKeyboardEPv
 636              	_ZN16ProducerKeyboard16producerKeyboardEPv:
 637              	.LFB6:
  33:test/../test/ConsumerProducer_CPP_Sync_API_test.hpp ****     struct thread_data *data = (struct thread_data *) arg;
 638              		.loc 1 33 52 is_stmt 1
 639              		.cfi_startproc
 640              	.LVL63:
 641 012c 130101FD 		addi	sp,sp,-48
 642              		.cfi_def_cfa_offset 48
 643 0130 23341102 		sd	ra,40(sp)
GAS LISTING /tmp/ccz7Twe1.s 			page 17


 644 0134 23308102 		sd	s0,32(sp)
 645 0138 233C9100 		sd	s1,24(sp)
 646 013c 23382101 		sd	s2,16(sp)
 647 0140 23343101 		sd	s3,8(sp)
 648              		.cfi_offset 1, -8
 649              		.cfi_offset 8, -16
 650              		.cfi_offset 9, -24
 651              		.cfi_offset 18, -32
 652              		.cfi_offset 19, -40
 653 0144 13040103 		addi	s0,sp,48
 654              		.cfi_def_cfa 8, 0
 655 0148 93090500 		mv	s3,a0
 656 014c 93840500 		mv	s1,a1
  34:test/../test/ConsumerProducer_CPP_Sync_API_test.hpp **** 
 657              		.loc 1 34 5
 658              	.LVL64:
  36:test/../test/ConsumerProducer_CPP_Sync_API_test.hpp ****     int i = 0;
 659              		.loc 1 36 5
  37:test/../test/ConsumerProducer_CPP_Sync_API_test.hpp ****     while ((key = getc()) != 0x1b) {
 660              		.loc 1 37 5
  37:test/../test/ConsumerProducer_CPP_Sync_API_test.hpp ****     while ((key = getc()) != 0x1b) {
 661              		.loc 1 37 9 is_stmt 0
 662 0150 13090000 		li	s2,0
 663 0154 6F00C000 		j	.L31
 664              	.LVL65:
 665              	.L35:
  43:test/../test/ConsumerProducer_CPP_Sync_API_test.hpp ****         }
 666              		.loc 1 43 13 is_stmt 1
  43:test/../test/ConsumerProducer_CPP_Sync_API_test.hpp ****         }
 667              		.loc 1 43 29 is_stmt 0
 668 0158 97000000 		call	_ZN6Thread8dispatchEv@plt
 668      E7800000 
 669              	.LVL66:
 670              	.L31:
  38:test/../test/ConsumerProducer_CPP_Sync_API_test.hpp ****         data->buffer->put(key);
 671              		.loc 1 38 5 is_stmt 1
  38:test/../test/ConsumerProducer_CPP_Sync_API_test.hpp ****         data->buffer->put(key);
 672              		.loc 1 38 27
  38:test/../test/ConsumerProducer_CPP_Sync_API_test.hpp ****         data->buffer->put(key);
 673              		.loc 1 38 23 is_stmt 0
 674 0160 97000000 		call	_Z4getcv@plt
 674      E7800000 
 675              	.LVL67:
  38:test/../test/ConsumerProducer_CPP_Sync_API_test.hpp ****         data->buffer->put(key);
 676              		.loc 1 38 17
 677 0168 9B050500 		sext.w	a1,a0
 678              	.LVL68:
  38:test/../test/ConsumerProducer_CPP_Sync_API_test.hpp ****         data->buffer->put(key);
 679              		.loc 1 38 27
 680 016c 9307B001 		li	a5,27
 681 0170 638AF502 		beq	a1,a5,.L32
  39:test/../test/ConsumerProducer_CPP_Sync_API_test.hpp ****         i++;
 682              		.loc 1 39 9 is_stmt 1
  39:test/../test/ConsumerProducer_CPP_Sync_API_test.hpp ****         i++;
 683              		.loc 1 39 26 is_stmt 0
 684 0174 03B58400 		ld	a0,8(s1)
 685 0178 97000000 		call	_ZN9BufferCPP3putEi@plt
GAS LISTING /tmp/ccz7Twe1.s 			page 18


 685      E7800000 
 686              	.LVL69:
  40:test/../test/ConsumerProducer_CPP_Sync_API_test.hpp **** 
 687              		.loc 1 40 9 is_stmt 1
  40:test/../test/ConsumerProducer_CPP_Sync_API_test.hpp **** 
 688              		.loc 1 40 10 is_stmt 0
 689 0180 1B071900 		addiw	a4,s2,1
 690 0184 1B090700 		sext.w	s2,a4
 691              	.LVL70:
  42:test/../test/ConsumerProducer_CPP_Sync_API_test.hpp ****             Thread::dispatch();
 692              		.loc 1 42 9 is_stmt 1
  42:test/../test/ConsumerProducer_CPP_Sync_API_test.hpp ****             Thread::dispatch();
 693              		.loc 1 42 29 is_stmt 0
 694 0188 83A60400 		lw	a3,0(s1)
  42:test/../test/ConsumerProducer_CPP_Sync_API_test.hpp ****             Thread::dispatch();
 695              		.loc 1 42 21
 696 018c 9B972600 		slliw	a5,a3,2
 697 0190 BB87D700 		addw	a5,a5,a3
 698 0194 9B971700 		slliw	a5,a5,1
  42:test/../test/ConsumerProducer_CPP_Sync_API_test.hpp ****             Thread::dispatch();
 699              		.loc 1 42 15
 700 0198 BB67F702 		remw	a5,a4,a5
  42:test/../test/ConsumerProducer_CPP_Sync_API_test.hpp ****             Thread::dispatch();
 701              		.loc 1 42 9
 702 019c E39207FC 		bnez	a5,.L31
 703 01a0 6FF09FFB 		j	.L35
 704              	.LVL71:
 705              	.L32:
  47:test/../test/ConsumerProducer_CPP_Sync_API_test.hpp ****     td->buffer->put('!');
 706              		.loc 1 47 5 is_stmt 1
  47:test/../test/ConsumerProducer_CPP_Sync_API_test.hpp ****     td->buffer->put('!');
 707              		.loc 1 47 15 is_stmt 0
 708 01a4 93071000 		li	a5,1
 709 01a8 17070000 		sw	a5,.LANCHOR0+32,a4
 709      2320F700 
  48:test/../test/ConsumerProducer_CPP_Sync_API_test.hpp **** 
 710              		.loc 1 48 5 is_stmt 1
 711 01b0 83B70901 		ld	a5,16(s3)
  48:test/../test/ConsumerProducer_CPP_Sync_API_test.hpp **** 
 712              		.loc 1 48 20 is_stmt 0
 713 01b4 93051002 		li	a1,33
 714              	.LVL72:
 715 01b8 03B58700 		ld	a0,8(a5)
 716              	.LVL73:
 717 01bc 97000000 		call	_ZN9BufferCPP3putEi@plt
 717      E7800000 
 718              	.LVL74:
  50:test/../test/ConsumerProducer_CPP_Sync_API_test.hpp **** }
 719              		.loc 1 50 5 is_stmt 1
  50:test/../test/ConsumerProducer_CPP_Sync_API_test.hpp **** }
 720              		.loc 1 50 23 is_stmt 0
 721 01c4 03B50401 		ld	a0,16(s1)
 722 01c8 97000000 		call	_ZN9Semaphore6signalEv@plt
 722      E7800000 
 723              	.LVL75:
  51:test/../test/ConsumerProducer_CPP_Sync_API_test.hpp **** 
 724              		.loc 1 51 1
GAS LISTING /tmp/ccz7Twe1.s 			page 19


 725 01d0 83308102 		ld	ra,40(sp)
 726              		.cfi_restore 1
 727 01d4 03340102 		ld	s0,32(sp)
 728              		.cfi_restore 8
 729              		.cfi_def_cfa 2, 48
 730 01d8 83348101 		ld	s1,24(sp)
 731              		.cfi_restore 9
 732              	.LVL76:
 733 01dc 03390101 		ld	s2,16(sp)
 734              		.cfi_restore 18
 735              	.LVL77:
 736 01e0 83398100 		ld	s3,8(sp)
 737              		.cfi_restore 19
 738              	.LVL78:
 739 01e4 13010103 		addi	sp,sp,48
 740              		.cfi_def_cfa_offset 0
 741 01e8 67800000 		jr	ra
 742              		.cfi_endproc
 743              	.LFE6:
 745              		.section	.text._ZN16ProducerKeyboard3runEv,"axG",@progbits,_ZN16ProducerKeyboard3runEv,comdat
 746              		.align	2
 747              		.weak	_ZN16ProducerKeyboard3runEv
 749              	_ZN16ProducerKeyboard3runEv:
 750              	.LFB5:
  28:test/../test/ConsumerProducer_CPP_Sync_API_test.hpp ****         producerKeyboard(td);
 751              		.loc 1 28 10 is_stmt 1
 752              		.cfi_startproc
 753              	.LVL79:
 754 0000 130101FF 		addi	sp,sp,-16
 755              		.cfi_def_cfa_offset 16
 756 0004 23341100 		sd	ra,8(sp)
 757 0008 23308100 		sd	s0,0(sp)
 758              		.cfi_offset 1, -8
 759              		.cfi_offset 8, -16
 760 000c 13040101 		addi	s0,sp,16
 761              		.cfi_def_cfa 8, 0
  29:test/../test/ConsumerProducer_CPP_Sync_API_test.hpp ****     }
 762              		.loc 1 29 9
  29:test/../test/ConsumerProducer_CPP_Sync_API_test.hpp ****     }
 763              		.loc 1 29 25 is_stmt 0
 764 0010 83350501 		ld	a1,16(a0)
 765 0014 97000000 		call	_ZN16ProducerKeyboard16producerKeyboardEPv
 765      E7800000 
 766              	.LVL80:
  30:test/../test/ConsumerProducer_CPP_Sync_API_test.hpp **** };
 767              		.loc 1 30 5
 768 001c 83308100 		ld	ra,8(sp)
 769              		.cfi_restore 1
 770 0020 03340100 		ld	s0,0(sp)
 771              		.cfi_restore 8
 772              		.cfi_def_cfa 2, 16
 773 0024 13010101 		addi	sp,sp,16
 774              		.cfi_def_cfa_offset 0
 775 0028 67800000 		jr	ra
 776              		.cfi_endproc
 777              	.LFE5:
 779              		.text
GAS LISTING /tmp/ccz7Twe1.s 			page 20


 780              		.align	2
 781              		.globl	_ZN8Producer8producerEPv
 783              	_ZN8Producer8producerEPv:
 784              	.LFB11:
  64:test/../test/ConsumerProducer_CPP_Sync_API_test.hpp ****     struct thread_data *data = (struct thread_data *) arg;
 785              		.loc 1 64 36 is_stmt 1
 786              		.cfi_startproc
 787              	.LVL81:
 788 01ec 130101FE 		addi	sp,sp,-32
 789              		.cfi_def_cfa_offset 32
 790 01f0 233C1100 		sd	ra,24(sp)
 791 01f4 23388100 		sd	s0,16(sp)
 792 01f8 23349100 		sd	s1,8(sp)
 793 01fc 23302101 		sd	s2,0(sp)
 794              		.cfi_offset 1, -8
 795              		.cfi_offset 8, -16
 796              		.cfi_offset 9, -24
 797              		.cfi_offset 18, -32
 798 0200 13040102 		addi	s0,sp,32
 799              		.cfi_def_cfa 8, 0
 800 0204 93840500 		mv	s1,a1
  65:test/../test/ConsumerProducer_CPP_Sync_API_test.hpp **** 
 801              		.loc 1 65 5
 802              	.LVL82:
  67:test/../test/ConsumerProducer_CPP_Sync_API_test.hpp ****     while (!threadEnd) {
 803              		.loc 1 67 5
  67:test/../test/ConsumerProducer_CPP_Sync_API_test.hpp ****     while (!threadEnd) {
 804              		.loc 1 67 9 is_stmt 0
 805 0208 13090000 		li	s2,0
 806 020c 6F00C000 		j	.L39
 807              	.LVL83:
 808              	.L43:
  73:test/../test/ConsumerProducer_CPP_Sync_API_test.hpp ****         }
 809              		.loc 1 73 13 is_stmt 1
  73:test/../test/ConsumerProducer_CPP_Sync_API_test.hpp ****         }
 810              		.loc 1 73 29 is_stmt 0
 811 0210 97000000 		call	_ZN6Thread8dispatchEv@plt
 811      E7800000 
 812              	.LVL84:
 813              	.L39:
  68:test/../test/ConsumerProducer_CPP_Sync_API_test.hpp ****         data->buffer->put(data->id + '0');
 814              		.loc 1 68 5 is_stmt 1
  68:test/../test/ConsumerProducer_CPP_Sync_API_test.hpp ****         data->buffer->put(data->id + '0');
 815              		.loc 1 68 12
 816 0218 97070000 		lw	a5,.LANCHOR0+32
 816      83A70700 
 817 0220 639E0702 		bnez	a5,.L40
  69:test/../test/ConsumerProducer_CPP_Sync_API_test.hpp ****         i++;
 818              		.loc 1 69 9
  69:test/../test/ConsumerProducer_CPP_Sync_API_test.hpp ****         i++;
 819              		.loc 1 69 33 is_stmt 0
 820 0224 83A50400 		lw	a1,0(s1)
  69:test/../test/ConsumerProducer_CPP_Sync_API_test.hpp ****         i++;
 821              		.loc 1 69 26
 822 0228 9B850503 		addiw	a1,a1,48
 823 022c 03B58400 		ld	a0,8(s1)
 824 0230 97000000 		call	_ZN9BufferCPP3putEi@plt
GAS LISTING /tmp/ccz7Twe1.s 			page 21


 824      E7800000 
 825              	.LVL85:
  70:test/../test/ConsumerProducer_CPP_Sync_API_test.hpp **** 
 826              		.loc 1 70 9 is_stmt 1
  70:test/../test/ConsumerProducer_CPP_Sync_API_test.hpp **** 
 827              		.loc 1 70 10 is_stmt 0
 828 0238 1B071900 		addiw	a4,s2,1
 829 023c 1B090700 		sext.w	s2,a4
 830              	.LVL86:
  72:test/../test/ConsumerProducer_CPP_Sync_API_test.hpp ****             Thread::dispatch();
 831              		.loc 1 72 9 is_stmt 1
  72:test/../test/ConsumerProducer_CPP_Sync_API_test.hpp ****             Thread::dispatch();
 832              		.loc 1 72 29 is_stmt 0
 833 0240 83A60400 		lw	a3,0(s1)
  72:test/../test/ConsumerProducer_CPP_Sync_API_test.hpp ****             Thread::dispatch();
 834              		.loc 1 72 21
 835 0244 9B972600 		slliw	a5,a3,2
 836 0248 BB87D700 		addw	a5,a5,a3
 837 024c 9B971700 		slliw	a5,a5,1
  72:test/../test/ConsumerProducer_CPP_Sync_API_test.hpp ****             Thread::dispatch();
 838              		.loc 1 72 15
 839 0250 BB67F702 		remw	a5,a4,a5
  72:test/../test/ConsumerProducer_CPP_Sync_API_test.hpp ****             Thread::dispatch();
 840              		.loc 1 72 9
 841 0254 E39207FC 		bnez	a5,.L39
 842 0258 6FF09FFB 		j	.L43
 843              	.LVL87:
 844              	.L40:
  77:test/../test/ConsumerProducer_CPP_Sync_API_test.hpp **** }
 845              		.loc 1 77 5 is_stmt 1
  77:test/../test/ConsumerProducer_CPP_Sync_API_test.hpp **** }
 846              		.loc 1 77 23 is_stmt 0
 847 025c 03B50401 		ld	a0,16(s1)
 848 0260 97000000 		call	_ZN9Semaphore6signalEv@plt
 848      E7800000 
 849              	.LVL88:
  78:test/../test/ConsumerProducer_CPP_Sync_API_test.hpp **** 
 850              		.loc 1 78 1
 851 0268 83308101 		ld	ra,24(sp)
 852              		.cfi_restore 1
 853 026c 03340101 		ld	s0,16(sp)
 854              		.cfi_restore 8
 855              		.cfi_def_cfa 2, 32
 856 0270 83348100 		ld	s1,8(sp)
 857              		.cfi_restore 9
 858              	.LVL89:
 859 0274 03390100 		ld	s2,0(sp)
 860              		.cfi_restore 18
 861              	.LVL90:
 862 0278 13010102 		addi	sp,sp,32
 863              		.cfi_def_cfa_offset 0
 864 027c 67800000 		jr	ra
 865              		.cfi_endproc
 866              	.LFE11:
 868              		.section	.text._ZN8Producer3runEv,"axG",@progbits,_ZN8Producer3runEv,comdat
 869              		.align	2
 870              		.weak	_ZN8Producer3runEv
GAS LISTING /tmp/ccz7Twe1.s 			page 22


 872              	_ZN8Producer3runEv:
 873              	.LFB10:
  59:test/../test/ConsumerProducer_CPP_Sync_API_test.hpp ****         producer(td);
 874              		.loc 1 59 10 is_stmt 1
 875              		.cfi_startproc
 876              	.LVL91:
 877 0000 130101FF 		addi	sp,sp,-16
 878              		.cfi_def_cfa_offset 16
 879 0004 23341100 		sd	ra,8(sp)
 880 0008 23308100 		sd	s0,0(sp)
 881              		.cfi_offset 1, -8
 882              		.cfi_offset 8, -16
 883 000c 13040101 		addi	s0,sp,16
 884              		.cfi_def_cfa 8, 0
  60:test/../test/ConsumerProducer_CPP_Sync_API_test.hpp ****     }
 885              		.loc 1 60 9
  60:test/../test/ConsumerProducer_CPP_Sync_API_test.hpp ****     }
 886              		.loc 1 60 17 is_stmt 0
 887 0010 83350501 		ld	a1,16(a0)
 888 0014 97000000 		call	_ZN8Producer8producerEPv
 888      E7800000 
 889              	.LVL92:
  61:test/../test/ConsumerProducer_CPP_Sync_API_test.hpp **** };
 890              		.loc 1 61 5
 891 001c 83308100 		ld	ra,8(sp)
 892              		.cfi_restore 1
 893 0020 03340100 		ld	s0,0(sp)
 894              		.cfi_restore 8
 895              		.cfi_def_cfa 2, 16
 896 0024 13010101 		addi	sp,sp,16
 897              		.cfi_def_cfa_offset 0
 898 0028 67800000 		jr	ra
 899              		.cfi_endproc
 900              	.LFE10:
 902              		.text
 903              		.align	2
 904              		.globl	_ZN8Consumer8consumerEPv
 906              	_ZN8Consumer8consumerEPv:
 907              	.LFB16:
  81:test/../test/ConsumerProducer_CPP_Sync_API_test.hpp ****     thread_data* td;
  82:test/../test/ConsumerProducer_CPP_Sync_API_test.hpp ****     void consumer(void *arg);
  83:test/../test/ConsumerProducer_CPP_Sync_API_test.hpp **** public:
  84:test/../test/ConsumerProducer_CPP_Sync_API_test.hpp ****     Consumer(thread_data* _td):Thread(), td(_td) {}
  85:test/../test/ConsumerProducer_CPP_Sync_API_test.hpp **** 
  86:test/../test/ConsumerProducer_CPP_Sync_API_test.hpp ****     void run() override {
  87:test/../test/ConsumerProducer_CPP_Sync_API_test.hpp ****         consumer(td);
  88:test/../test/ConsumerProducer_CPP_Sync_API_test.hpp ****     }
  89:test/../test/ConsumerProducer_CPP_Sync_API_test.hpp **** };
  90:test/../test/ConsumerProducer_CPP_Sync_API_test.hpp **** 
  91:test/../test/ConsumerProducer_CPP_Sync_API_test.hpp **** void Consumer::consumer(void *arg) {
 908              		.loc 1 91 36 is_stmt 1
 909              		.cfi_startproc
 910              	.LVL93:
 911 0280 130101FD 		addi	sp,sp,-48
 912              		.cfi_def_cfa_offset 48
 913 0284 23341102 		sd	ra,40(sp)
 914 0288 23308102 		sd	s0,32(sp)
GAS LISTING /tmp/ccz7Twe1.s 			page 23


 915 028c 233C9100 		sd	s1,24(sp)
 916 0290 23382101 		sd	s2,16(sp)
 917 0294 23343101 		sd	s3,8(sp)
 918 0298 23304101 		sd	s4,0(sp)
 919              		.cfi_offset 1, -8
 920              		.cfi_offset 8, -16
 921              		.cfi_offset 9, -24
 922              		.cfi_offset 18, -32
 923              		.cfi_offset 19, -40
 924              		.cfi_offset 20, -48
 925 029c 13040103 		addi	s0,sp,48
 926              		.cfi_def_cfa 8, 0
 927 02a0 93090500 		mv	s3,a0
 928 02a4 13890500 		mv	s2,a1
  92:test/../test/ConsumerProducer_CPP_Sync_API_test.hpp ****     struct thread_data *data = (struct thread_data *) arg;
 929              		.loc 1 92 5
 930              	.LVL94:
  93:test/../test/ConsumerProducer_CPP_Sync_API_test.hpp **** 
  94:test/../test/ConsumerProducer_CPP_Sync_API_test.hpp ****     int i = 0;
 931              		.loc 1 94 5
 932              		.loc 1 94 9 is_stmt 0
 933 02a8 130A0000 		li	s4,0
 934 02ac 6F00C001 		j	.L47
 935              	.LVL95:
 936              	.L53:
 937              	.LBB49:
  95:test/../test/ConsumerProducer_CPP_Sync_API_test.hpp ****     while (!threadEnd) {
  96:test/../test/ConsumerProducer_CPP_Sync_API_test.hpp ****         int key = data->buffer->get();
  97:test/../test/ConsumerProducer_CPP_Sync_API_test.hpp ****         i++;
  98:test/../test/ConsumerProducer_CPP_Sync_API_test.hpp **** 
  99:test/../test/ConsumerProducer_CPP_Sync_API_test.hpp ****         putc(key);
 100:test/../test/ConsumerProducer_CPP_Sync_API_test.hpp **** 
 101:test/../test/ConsumerProducer_CPP_Sync_API_test.hpp ****         if (i % (5 * data->id) == 0) {
 102:test/../test/ConsumerProducer_CPP_Sync_API_test.hpp ****             Thread::dispatch();
 938              		.loc 1 102 13 is_stmt 1
 939              		.loc 1 102 29 is_stmt 0
 940 02b0 97000000 		call	_ZN6Thread8dispatchEv@plt
 940      E7800000 
 941              	.LVL96:
 942 02b8 6F000005 		j	.L49
 943              	.LVL97:
 944              	.L54:
 103:test/../test/ConsumerProducer_CPP_Sync_API_test.hpp ****         }
 104:test/../test/ConsumerProducer_CPP_Sync_API_test.hpp **** 
 105:test/../test/ConsumerProducer_CPP_Sync_API_test.hpp ****         if (i % 80 == 0) {
 106:test/../test/ConsumerProducer_CPP_Sync_API_test.hpp ****             putc('\n');
 945              		.loc 1 106 13 is_stmt 1
 946              		.loc 1 106 17 is_stmt 0
 947 02bc 1305A000 		li	a0,10
 948 02c0 97000000 		call	_Z4putcc@plt
 948      E7800000 
 949              	.LVL98:
 950              	.L47:
 951              	.LBE49:
  95:test/../test/ConsumerProducer_CPP_Sync_API_test.hpp ****     while (!threadEnd) {
 952              		.loc 1 95 5 is_stmt 1
  95:test/../test/ConsumerProducer_CPP_Sync_API_test.hpp ****     while (!threadEnd) {
GAS LISTING /tmp/ccz7Twe1.s 			page 24


 953              		.loc 1 95 12
 954 02c8 97070000 		lw	a5,.LANCHOR0+32
 954      83A70700 
 955 02d0 63920706 		bnez	a5,.L48
 956              	.LBB50:
  96:test/../test/ConsumerProducer_CPP_Sync_API_test.hpp ****         i++;
 957              		.loc 1 96 9
  96:test/../test/ConsumerProducer_CPP_Sync_API_test.hpp ****         i++;
 958              		.loc 1 96 36 is_stmt 0
 959 02d4 03358900 		ld	a0,8(s2)
 960 02d8 97000000 		call	_ZN9BufferCPP3getEv@plt
 960      E7800000 
 961              	.LVL99:
  97:test/../test/ConsumerProducer_CPP_Sync_API_test.hpp **** 
 962              		.loc 1 97 9 is_stmt 1
  97:test/../test/ConsumerProducer_CPP_Sync_API_test.hpp **** 
 963              		.loc 1 97 10 is_stmt 0
 964 02e0 9B041A00 		addiw	s1,s4,1
 965 02e4 1B8A0400 		sext.w	s4,s1
 966              	.LVL100:
  99:test/../test/ConsumerProducer_CPP_Sync_API_test.hpp **** 
 967              		.loc 1 99 9 is_stmt 1
  99:test/../test/ConsumerProducer_CPP_Sync_API_test.hpp **** 
 968              		.loc 1 99 13 is_stmt 0
 969 02e8 1375F50F 		andi	a0,a0,0xff
 970              	.LVL101:
 971 02ec 97000000 		call	_Z4putcc@plt
 971      E7800000 
 972              	.LVL102:
 101:test/../test/ConsumerProducer_CPP_Sync_API_test.hpp ****             Thread::dispatch();
 973              		.loc 1 101 9 is_stmt 1
 101:test/../test/ConsumerProducer_CPP_Sync_API_test.hpp ****             Thread::dispatch();
 974              		.loc 1 101 28 is_stmt 0
 975 02f4 03270900 		lw	a4,0(s2)
 101:test/../test/ConsumerProducer_CPP_Sync_API_test.hpp ****             Thread::dispatch();
 976              		.loc 1 101 20
 977 02f8 9B172700 		slliw	a5,a4,2
 978 02fc BB87E700 		addw	a5,a5,a4
 101:test/../test/ConsumerProducer_CPP_Sync_API_test.hpp ****             Thread::dispatch();
 979              		.loc 1 101 15
 980 0300 BBE7F402 		remw	a5,s1,a5
 101:test/../test/ConsumerProducer_CPP_Sync_API_test.hpp ****             Thread::dispatch();
 981              		.loc 1 101 9
 982 0304 E38607FA 		beqz	a5,.L53
 983              	.L49:
 105:test/../test/ConsumerProducer_CPP_Sync_API_test.hpp ****             putc('\n');
 984              		.loc 1 105 9 is_stmt 1
 105:test/../test/ConsumerProducer_CPP_Sync_API_test.hpp ****             putc('\n');
 985              		.loc 1 105 15 is_stmt 0
 986 0308 93070005 		li	a5,80
 987 030c BBE4F402 		remw	s1,s1,a5
 988              	.LVL103:
 105:test/../test/ConsumerProducer_CPP_Sync_API_test.hpp ****             putc('\n');
 989              		.loc 1 105 9
 990 0310 E39C04FA 		bnez	s1,.L47
 991 0314 6FF09FFA 		j	.L54
 992              	.L55:
GAS LISTING /tmp/ccz7Twe1.s 			page 25


 993              	.LBE50:
 994              	.LBB51:
 107:test/../test/ConsumerProducer_CPP_Sync_API_test.hpp ****         }
 108:test/../test/ConsumerProducer_CPP_Sync_API_test.hpp ****     }
 109:test/../test/ConsumerProducer_CPP_Sync_API_test.hpp **** 
 110:test/../test/ConsumerProducer_CPP_Sync_API_test.hpp **** 
 111:test/../test/ConsumerProducer_CPP_Sync_API_test.hpp ****     while (td->buffer->getCnt() > 0) {
 112:test/../test/ConsumerProducer_CPP_Sync_API_test.hpp ****         int key = td->buffer->get();
 995              		.loc 1 112 9 is_stmt 1
 996              		.loc 1 112 19 is_stmt 0
 997 0318 83B70901 		ld	a5,16(s3)
 998              		.loc 1 112 34
 999 031c 03B58700 		ld	a0,8(a5)
 1000 0320 97000000 		call	_ZN9BufferCPP3getEv@plt
 1000      E7800000 
 1001              	.LVL104:
 113:test/../test/ConsumerProducer_CPP_Sync_API_test.hpp ****         Console::putc(key);
 1002              		.loc 1 113 9 is_stmt 1
 1003              		.loc 1 113 22 is_stmt 0
 1004 0328 1375F50F 		andi	a0,a0,0xff
 1005              	.LVL105:
 1006 032c 97000000 		call	_ZN7Console4putcEc@plt
 1006      E7800000 
 1007              	.LVL106:
 1008              	.L48:
 1009              	.LBE51:
 111:test/../test/ConsumerProducer_CPP_Sync_API_test.hpp ****         int key = td->buffer->get();
 1010              		.loc 1 111 5 is_stmt 1
 111:test/../test/ConsumerProducer_CPP_Sync_API_test.hpp ****         int key = td->buffer->get();
 1011              		.loc 1 111 33
 111:test/../test/ConsumerProducer_CPP_Sync_API_test.hpp ****         int key = td->buffer->get();
 1012              		.loc 1 111 12 is_stmt 0
 1013 0334 83B70901 		ld	a5,16(s3)
 111:test/../test/ConsumerProducer_CPP_Sync_API_test.hpp ****         int key = td->buffer->get();
 1014              		.loc 1 111 30
 1015 0338 03B58700 		ld	a0,8(a5)
 1016 033c 97000000 		call	_ZN9BufferCPP6getCntEv@plt
 1016      E7800000 
 1017              	.LVL107:
 111:test/../test/ConsumerProducer_CPP_Sync_API_test.hpp ****         int key = td->buffer->get();
 1018              		.loc 1 111 33
 1019 0344 E34AA0FC 		bgtz	a0,.L55
 114:test/../test/ConsumerProducer_CPP_Sync_API_test.hpp ****     }
 115:test/../test/ConsumerProducer_CPP_Sync_API_test.hpp **** 
 116:test/../test/ConsumerProducer_CPP_Sync_API_test.hpp ****     data->wait->signal();
 1020              		.loc 1 116 5 is_stmt 1
 1021              		.loc 1 116 23 is_stmt 0
 1022 0348 03350901 		ld	a0,16(s2)
 1023 034c 97000000 		call	_ZN9Semaphore6signalEv@plt
 1023      E7800000 
 1024              	.LVL108:
 117:test/../test/ConsumerProducer_CPP_Sync_API_test.hpp **** }
 1025              		.loc 1 117 1
 1026 0354 83308102 		ld	ra,40(sp)
 1027              		.cfi_restore 1
 1028 0358 03340102 		ld	s0,32(sp)
 1029              		.cfi_restore 8
GAS LISTING /tmp/ccz7Twe1.s 			page 26


 1030              		.cfi_def_cfa 2, 48
 1031 035c 83348101 		ld	s1,24(sp)
 1032              		.cfi_restore 9
 1033 0360 03390101 		ld	s2,16(sp)
 1034              		.cfi_restore 18
 1035              	.LVL109:
 1036 0364 83398100 		ld	s3,8(sp)
 1037              		.cfi_restore 19
 1038              	.LVL110:
 1039 0368 033A0100 		ld	s4,0(sp)
 1040              		.cfi_restore 20
 1041              	.LVL111:
 1042 036c 13010103 		addi	sp,sp,48
 1043              		.cfi_def_cfa_offset 0
 1044 0370 67800000 		jr	ra
 1045              		.cfi_endproc
 1046              	.LFE16:
 1048              		.section	.text._ZN8Consumer3runEv,"axG",@progbits,_ZN8Consumer3runEv,comdat
 1049              		.align	2
 1050              		.weak	_ZN8Consumer3runEv
 1052              	_ZN8Consumer3runEv:
 1053              	.LFB15:
  86:test/../test/ConsumerProducer_CPP_Sync_API_test.hpp ****         consumer(td);
 1054              		.loc 1 86 10 is_stmt 1
 1055              		.cfi_startproc
 1056              	.LVL112:
 1057 0000 130101FF 		addi	sp,sp,-16
 1058              		.cfi_def_cfa_offset 16
 1059 0004 23341100 		sd	ra,8(sp)
 1060 0008 23308100 		sd	s0,0(sp)
 1061              		.cfi_offset 1, -8
 1062              		.cfi_offset 8, -16
 1063 000c 13040101 		addi	s0,sp,16
 1064              		.cfi_def_cfa 8, 0
  87:test/../test/ConsumerProducer_CPP_Sync_API_test.hpp ****     }
 1065              		.loc 1 87 9
  87:test/../test/ConsumerProducer_CPP_Sync_API_test.hpp ****     }
 1066              		.loc 1 87 17 is_stmt 0
 1067 0010 83350501 		ld	a1,16(a0)
 1068 0014 97000000 		call	_ZN8Consumer8consumerEPv
 1068      E7800000 
 1069              	.LVL113:
  88:test/../test/ConsumerProducer_CPP_Sync_API_test.hpp **** };
 1070              		.loc 1 88 5
 1071 001c 83308100 		ld	ra,8(sp)
 1072              		.cfi_restore 1
 1073 0020 03340100 		ld	s0,0(sp)
 1074              		.cfi_restore 8
 1075              		.cfi_def_cfa 2, 16
 1076 0024 13010101 		addi	sp,sp,16
 1077              		.cfi_def_cfa_offset 0
 1078 0028 67800000 		jr	ra
 1079              		.cfi_endproc
 1080              	.LFE15:
 1082              		.section	.rodata.str1.8,"aMS",@progbits,1
 1083              		.align	3
 1084              	.LC0:
GAS LISTING /tmp/ccz7Twe1.s 			page 27


 1085 0000 556E6573 		.string	"Unesite broj proizvodjaca?\n"
 1085      69746520 
 1085      62726F6A 
 1085      2070726F 
 1085      697A766F 
 1086 001c 00000000 		.align	3
 1087              	.LC1:
 1088 0020 556E6573 		.string	"Unesite velicinu bafera?\n"
 1088      69746520 
 1088      76656C69 
 1088      63696E75 
 1088      20626166 
 1089 003a 00000000 		.align	3
 1089      0000
 1090              	.LC2:
 1091 0040 42726F6A 		.string	"Broj proizvodjaca "
 1091      2070726F 
 1091      697A766F 
 1091      646A6163 
 1091      612000
 1092 0053 00000000 		.align	3
 1092      00
 1093              	.LC3:
 1094 0058 20692076 		.string	" i velicina bafera "
 1094      656C6963 
 1094      696E6120 
 1094      62616665 
 1094      72612000 
 1095 006c 00000000 		.align	3
 1096              	.LC4:
 1097 0070 2E0A00   		.string	".\n"
 1098 0073 00000000 		.align	3
 1098      00
 1099              	.LC5:
 1100 0078 42726F6A 		.string	"Broj proizvodjaca ne sme biti manji od velicine bafera!\n"
 1100      2070726F 
 1100      697A766F 
 1100      646A6163 
 1100      61206E65 
 1101 00b1 00000000 		.align	3
 1101      000000
 1102              	.LC6:
 1103 00b8 42726F6A 		.string	"Broj proizvodjaca mora biti veci od nula!\n"
 1103      2070726F 
 1103      697A766F 
 1103      646A6163 
 1103      61206D6F 
 1104              		.text
 1105              		.align	2
 1106              		.globl	_Z29producerConsumer_CPP_Sync_APIv
 1108              	_Z29producerConsumer_CPP_Sync_APIv:
 1109              	.LFB17:
 118:test/../test/ConsumerProducer_CPP_Sync_API_test.hpp **** 
 119:test/../test/ConsumerProducer_CPP_Sync_API_test.hpp **** void producerConsumer_CPP_Sync_API() {
 1110              		.loc 1 119 38 is_stmt 1
 1111              		.cfi_startproc
 1112              		.cfi_personality 0x9b,DW.ref.__gxx_personality_v0
GAS LISTING /tmp/ccz7Twe1.s 			page 28


 1113              		.cfi_lsda 0x1b,.LLSDA17
 1114 0374 130101F8 		addi	sp,sp,-128
 1115              		.cfi_def_cfa_offset 128
 1116 0378 233C1106 		sd	ra,120(sp)
 1117 037c 23388106 		sd	s0,112(sp)
 1118 0380 23349106 		sd	s1,104(sp)
 1119 0384 23302107 		sd	s2,96(sp)
 1120 0388 233C3105 		sd	s3,88(sp)
 1121 038c 23384105 		sd	s4,80(sp)
 1122 0390 23345105 		sd	s5,72(sp)
 1123 0394 23306105 		sd	s6,64(sp)
 1124 0398 233C7103 		sd	s7,56(sp)
 1125 039c 23388103 		sd	s8,48(sp)
 1126 03a0 23349103 		sd	s9,40(sp)
 1127              		.cfi_offset 1, -8
 1128              		.cfi_offset 8, -16
 1129              		.cfi_offset 9, -24
 1130              		.cfi_offset 18, -32
 1131              		.cfi_offset 19, -40
 1132              		.cfi_offset 20, -48
 1133              		.cfi_offset 21, -56
 1134              		.cfi_offset 22, -64
 1135              		.cfi_offset 23, -72
 1136              		.cfi_offset 24, -80
 1137              		.cfi_offset 25, -88
 1138 03a4 13040108 		addi	s0,sp,128
 1139              		.cfi_def_cfa 8, 0
 120:test/../test/ConsumerProducer_CPP_Sync_API_test.hpp ****     char input[30];
 121:test/../test/ConsumerProducer_CPP_Sync_API_test.hpp ****     int n, threadNum;
 122:test/../test/ConsumerProducer_CPP_Sync_API_test.hpp **** 
 123:test/../test/ConsumerProducer_CPP_Sync_API_test.hpp ****     printString("Unesite broj proizvodjaca?\n");
 124:test/../test/ConsumerProducer_CPP_Sync_API_test.hpp ****     getString(input, 30);
 125:test/../test/ConsumerProducer_CPP_Sync_API_test.hpp ****     threadNum = stringToInt(input);
 126:test/../test/ConsumerProducer_CPP_Sync_API_test.hpp **** 
 127:test/../test/ConsumerProducer_CPP_Sync_API_test.hpp ****     printString("Unesite velicinu bafera?\n");
 128:test/../test/ConsumerProducer_CPP_Sync_API_test.hpp ****     getString(input, 30);
 129:test/../test/ConsumerProducer_CPP_Sync_API_test.hpp ****     n = stringToInt(input);
 130:test/../test/ConsumerProducer_CPP_Sync_API_test.hpp **** 
 131:test/../test/ConsumerProducer_CPP_Sync_API_test.hpp ****     printString("Broj proizvodjaca "); printInt(threadNum);
 132:test/../test/ConsumerProducer_CPP_Sync_API_test.hpp ****     printString(" i velicina bafera "); printInt(n);
 133:test/../test/ConsumerProducer_CPP_Sync_API_test.hpp ****     printString(".\n");
 134:test/../test/ConsumerProducer_CPP_Sync_API_test.hpp **** 
 135:test/../test/ConsumerProducer_CPP_Sync_API_test.hpp ****     if(threadNum > n) {
 136:test/../test/ConsumerProducer_CPP_Sync_API_test.hpp ****         printString("Broj proizvodjaca ne sme biti manji od velicine bafera!\n");
 137:test/../test/ConsumerProducer_CPP_Sync_API_test.hpp ****         return;
 138:test/../test/ConsumerProducer_CPP_Sync_API_test.hpp ****     } else if (threadNum < 1) {
 139:test/../test/ConsumerProducer_CPP_Sync_API_test.hpp ****         printString("Broj proizvodjaca mora biti veci od nula!\n");
 140:test/../test/ConsumerProducer_CPP_Sync_API_test.hpp ****         return;
 141:test/../test/ConsumerProducer_CPP_Sync_API_test.hpp ****     }
 142:test/../test/ConsumerProducer_CPP_Sync_API_test.hpp **** 
 143:test/../test/ConsumerProducer_CPP_Sync_API_test.hpp ****     BufferCPP *buffer = new BufferCPP(n);
 144:test/../test/ConsumerProducer_CPP_Sync_API_test.hpp **** 
 145:test/../test/ConsumerProducer_CPP_Sync_API_test.hpp ****     waitForAll = new Semaphore(0);
 146:test/../test/ConsumerProducer_CPP_Sync_API_test.hpp **** 
 147:test/../test/ConsumerProducer_CPP_Sync_API_test.hpp ****     Thread* threads[threadNum];
 148:test/../test/ConsumerProducer_CPP_Sync_API_test.hpp ****     Thread* consumerThread;
 149:test/../test/ConsumerProducer_CPP_Sync_API_test.hpp **** 
GAS LISTING /tmp/ccz7Twe1.s 			page 29


 150:test/../test/ConsumerProducer_CPP_Sync_API_test.hpp ****     struct thread_data data[threadNum + 1];
 151:test/../test/ConsumerProducer_CPP_Sync_API_test.hpp **** 
 152:test/../test/ConsumerProducer_CPP_Sync_API_test.hpp ****     data[threadNum].id = threadNum;
 153:test/../test/ConsumerProducer_CPP_Sync_API_test.hpp ****     data[threadNum].buffer = buffer;
 154:test/../test/ConsumerProducer_CPP_Sync_API_test.hpp ****     data[threadNum].wait = waitForAll;
 155:test/../test/ConsumerProducer_CPP_Sync_API_test.hpp ****     consumerThread = new Consumer(data+threadNum);
 156:test/../test/ConsumerProducer_CPP_Sync_API_test.hpp ****     consumerThread->start();
 157:test/../test/ConsumerProducer_CPP_Sync_API_test.hpp **** 
 158:test/../test/ConsumerProducer_CPP_Sync_API_test.hpp ****     for (int i = 0; i < threadNum; i++) {
 159:test/../test/ConsumerProducer_CPP_Sync_API_test.hpp ****         data[i].id = i;
 160:test/../test/ConsumerProducer_CPP_Sync_API_test.hpp ****         data[i].buffer = buffer;
 161:test/../test/ConsumerProducer_CPP_Sync_API_test.hpp ****         data[i].wait = waitForAll;
 162:test/../test/ConsumerProducer_CPP_Sync_API_test.hpp **** 
 163:test/../test/ConsumerProducer_CPP_Sync_API_test.hpp ****         if(i>0) {
 164:test/../test/ConsumerProducer_CPP_Sync_API_test.hpp ****             threads[i] = new Producer(data+i);
 165:test/../test/ConsumerProducer_CPP_Sync_API_test.hpp ****         } else {
 166:test/../test/ConsumerProducer_CPP_Sync_API_test.hpp ****             threads[i] = new ProducerKeyboard(data+i);
 167:test/../test/ConsumerProducer_CPP_Sync_API_test.hpp ****         }
 168:test/../test/ConsumerProducer_CPP_Sync_API_test.hpp **** 
 169:test/../test/ConsumerProducer_CPP_Sync_API_test.hpp ****         threads[i]->start();
 170:test/../test/ConsumerProducer_CPP_Sync_API_test.hpp ****     }
 171:test/../test/ConsumerProducer_CPP_Sync_API_test.hpp **** 
 172:test/../test/ConsumerProducer_CPP_Sync_API_test.hpp ****     Thread::dispatch();
 173:test/../test/ConsumerProducer_CPP_Sync_API_test.hpp **** 
 174:test/../test/ConsumerProducer_CPP_Sync_API_test.hpp ****     for (int i = 0; i <= threadNum; i++) {
 175:test/../test/ConsumerProducer_CPP_Sync_API_test.hpp ****         waitForAll->wait();
 176:test/../test/ConsumerProducer_CPP_Sync_API_test.hpp ****     }
 177:test/../test/ConsumerProducer_CPP_Sync_API_test.hpp **** 
 178:test/../test/ConsumerProducer_CPP_Sync_API_test.hpp ****     for (int i = 0; i < threadNum; i++) {
 179:test/../test/ConsumerProducer_CPP_Sync_API_test.hpp ****         delete threads[i];
 180:test/../test/ConsumerProducer_CPP_Sync_API_test.hpp ****     }
 181:test/../test/ConsumerProducer_CPP_Sync_API_test.hpp ****     delete consumerThread;
 182:test/../test/ConsumerProducer_CPP_Sync_API_test.hpp ****     delete waitForAll;
 183:test/../test/ConsumerProducer_CPP_Sync_API_test.hpp ****     delete buffer;
 1140              		.loc 1 183 18 is_stmt 0
 1141 03a8 930B0100 		mv	s7,sp
 120:test/../test/ConsumerProducer_CPP_Sync_API_test.hpp ****     char input[30];
 1142              		.loc 1 120 5 is_stmt 1
 121:test/../test/ConsumerProducer_CPP_Sync_API_test.hpp **** 
 1143              		.loc 1 121 5
 123:test/../test/ConsumerProducer_CPP_Sync_API_test.hpp ****     getString(input, 30);
 1144              		.loc 1 123 5
 123:test/../test/ConsumerProducer_CPP_Sync_API_test.hpp ****     getString(input, 30);
 1145              		.loc 1 123 16 is_stmt 0
 1146 03ac 17050000 		lla	a0,.LC0
 1146      13050500 
 1147              	.LEHB0:
 1148 03b4 97000000 		call	_Z11printStringPKc@plt
 1148      E7800000 
 1149              	.LVL114:
 124:test/../test/ConsumerProducer_CPP_Sync_API_test.hpp ****     threadNum = stringToInt(input);
 1150              		.loc 1 124 5 is_stmt 1
 124:test/../test/ConsumerProducer_CPP_Sync_API_test.hpp ****     threadNum = stringToInt(input);
 1151              		.loc 1 124 14 is_stmt 0
 1152 03bc 9305E001 		li	a1,30
 1153 03c0 930404F8 		addi	s1,s0,-128
 1154 03c4 13850400 		mv	a0,s1
GAS LISTING /tmp/ccz7Twe1.s 			page 30


 1155 03c8 97000000 		call	_Z9getStringPci@plt
 1155      E7800000 
 1156              	.LVL115:
 125:test/../test/ConsumerProducer_CPP_Sync_API_test.hpp **** 
 1157              		.loc 1 125 5 is_stmt 1
 125:test/../test/ConsumerProducer_CPP_Sync_API_test.hpp **** 
 1158              		.loc 1 125 28 is_stmt 0
 1159 03d0 13850400 		mv	a0,s1
 1160 03d4 97000000 		call	_Z11stringToIntPKc@plt
 1160      E7800000 
 1161              	.LVL116:
 1162 03dc 13090500 		mv	s2,a0
 1163              	.LVL117:
 127:test/../test/ConsumerProducer_CPP_Sync_API_test.hpp ****     getString(input, 30);
 1164              		.loc 1 127 5 is_stmt 1
 127:test/../test/ConsumerProducer_CPP_Sync_API_test.hpp ****     getString(input, 30);
 1165              		.loc 1 127 16 is_stmt 0
 1166 03e0 17050000 		lla	a0,.LC1
 1166      13050500 
 1167 03e8 97000000 		call	_Z11printStringPKc@plt
 1167      E7800000 
 1168              	.LVL118:
 128:test/../test/ConsumerProducer_CPP_Sync_API_test.hpp ****     n = stringToInt(input);
 1169              		.loc 1 128 5 is_stmt 1
 128:test/../test/ConsumerProducer_CPP_Sync_API_test.hpp ****     n = stringToInt(input);
 1170              		.loc 1 128 14 is_stmt 0
 1171 03f0 9305E001 		li	a1,30
 1172 03f4 13850400 		mv	a0,s1
 1173 03f8 97000000 		call	_Z9getStringPci@plt
 1173      E7800000 
 1174              	.LVL119:
 129:test/../test/ConsumerProducer_CPP_Sync_API_test.hpp **** 
 1175              		.loc 1 129 5 is_stmt 1
 129:test/../test/ConsumerProducer_CPP_Sync_API_test.hpp **** 
 1176              		.loc 1 129 20 is_stmt 0
 1177 0400 13850400 		mv	a0,s1
 1178 0404 97000000 		call	_Z11stringToIntPKc@plt
 1178      E7800000 
 1179              	.LVL120:
 1180 040c 93040500 		mv	s1,a0
 1181              	.LVL121:
 131:test/../test/ConsumerProducer_CPP_Sync_API_test.hpp ****     printString(" i velicina bafera "); printInt(n);
 1182              		.loc 1 131 5 is_stmt 1
 131:test/../test/ConsumerProducer_CPP_Sync_API_test.hpp ****     printString(" i velicina bafera "); printInt(n);
 1183              		.loc 1 131 16 is_stmt 0
 1184 0410 17050000 		lla	a0,.LC2
 1184      13050500 
 1185 0418 97000000 		call	_Z11printStringPKc@plt
 1185      E7800000 
 1186              	.LVL122:
 131:test/../test/ConsumerProducer_CPP_Sync_API_test.hpp ****     printString(" i velicina bafera "); printInt(n);
 1187              		.loc 1 131 40 is_stmt 1
 131:test/../test/ConsumerProducer_CPP_Sync_API_test.hpp ****     printString(" i velicina bafera "); printInt(n);
 1188              		.loc 1 131 48 is_stmt 0
 1189 0420 13060000 		li	a2,0
 1190 0424 9305A000 		li	a1,10
 1191 0428 13050900 		mv	a0,s2
GAS LISTING /tmp/ccz7Twe1.s 			page 31


 1192 042c 97000000 		call	_Z8printIntiii@plt
 1192      E7800000 
 1193              	.LVL123:
 132:test/../test/ConsumerProducer_CPP_Sync_API_test.hpp ****     printString(".\n");
 1194              		.loc 1 132 5 is_stmt 1
 132:test/../test/ConsumerProducer_CPP_Sync_API_test.hpp ****     printString(".\n");
 1195              		.loc 1 132 16 is_stmt 0
 1196 0434 17050000 		lla	a0,.LC3
 1196      13050500 
 1197 043c 97000000 		call	_Z11printStringPKc@plt
 1197      E7800000 
 1198              	.LVL124:
 132:test/../test/ConsumerProducer_CPP_Sync_API_test.hpp ****     printString(".\n");
 1199              		.loc 1 132 41 is_stmt 1
 132:test/../test/ConsumerProducer_CPP_Sync_API_test.hpp ****     printString(".\n");
 1200              		.loc 1 132 49 is_stmt 0
 1201 0444 13060000 		li	a2,0
 1202 0448 9305A000 		li	a1,10
 1203 044c 13850400 		mv	a0,s1
 1204 0450 97000000 		call	_Z8printIntiii@plt
 1204      E7800000 
 1205              	.LVL125:
 133:test/../test/ConsumerProducer_CPP_Sync_API_test.hpp **** 
 1206              		.loc 1 133 5 is_stmt 1
 133:test/../test/ConsumerProducer_CPP_Sync_API_test.hpp **** 
 1207              		.loc 1 133 16 is_stmt 0
 1208 0458 17050000 		lla	a0,.LC4
 1208      13050500 
 1209 0460 97000000 		call	_Z11printStringPKc@plt
 1209      E7800000 
 1210              	.LVL126:
 135:test/../test/ConsumerProducer_CPP_Sync_API_test.hpp ****         printString("Broj proizvodjaca ne sme biti manji od velicine bafera!\n");
 1211              		.loc 1 135 5 is_stmt 1
 1212 0468 63C42403 		bgt	s2,s1,.L86
 138:test/../test/ConsumerProducer_CPP_Sync_API_test.hpp ****         printString("Broj proizvodjaca mora biti veci od nula!\n");
 1213              		.loc 1 138 12
 1214 046c 635C2003 		blez	s2,.L87
 143:test/../test/ConsumerProducer_CPP_Sync_API_test.hpp **** 
 1215              		.loc 1 143 5
 143:test/../test/ConsumerProducer_CPP_Sync_API_test.hpp **** 
 1216              		.loc 1 143 40 is_stmt 0
 1217 0470 13058003 		li	a0,56
 1218 0474 97000000 		call	_Znwm@plt
 1218      E7800000 
 1219              	.LVL127:
 1220              	.LEHE0:
 1221 047c 930A0500 		mv	s5,a0
 1222 0480 93850400 		mv	a1,s1
 1223              	.LEHB1:
 1224 0484 97000000 		call	_ZN9BufferCPPC1Ei@plt
 1224      E7800000 
 1225              	.LVL128:
 1226              	.LEHE1:
 1227 048c 6F000003 		j	.L88
 1228              	.L86:
 136:test/../test/ConsumerProducer_CPP_Sync_API_test.hpp ****         return;
 1229              		.loc 1 136 9 is_stmt 1
GAS LISTING /tmp/ccz7Twe1.s 			page 32


 136:test/../test/ConsumerProducer_CPP_Sync_API_test.hpp ****         return;
 1230              		.loc 1 136 20 is_stmt 0
 1231 0490 17050000 		lla	a0,.LC5
 1231      13050500 
 1232              	.LEHB2:
 1233 0498 97000000 		call	_Z11printStringPKc@plt
 1233      E7800000 
 1234              	.LVL129:
 137:test/../test/ConsumerProducer_CPP_Sync_API_test.hpp ****     } else if (threadNum < 1) {
 1235              		.loc 1 137 9 is_stmt 1
 1236 04a0 6F004001 		j	.L60
 1237              	.L87:
 139:test/../test/ConsumerProducer_CPP_Sync_API_test.hpp ****         return;
 1238              		.loc 1 139 9
 139:test/../test/ConsumerProducer_CPP_Sync_API_test.hpp ****         return;
 1239              		.loc 1 139 20 is_stmt 0
 1240 04a4 17050000 		lla	a0,.LC6
 1240      13050500 
 1241 04ac 97000000 		call	_Z11printStringPKc@plt
 1241      E7800000 
 1242              	.LVL130:
 140:test/../test/ConsumerProducer_CPP_Sync_API_test.hpp ****     }
 1243              		.loc 1 140 9 is_stmt 1
 1244              	.L60:
 1245 04b4 13810B00 		mv	sp,s7
 1246 04b8 6F000024 		j	.L58
 1247              	.L88:
 1248              	.LVL131:
 145:test/../test/ConsumerProducer_CPP_Sync_API_test.hpp **** 
 1249              		.loc 1 145 5 discriminator 3
 145:test/../test/ConsumerProducer_CPP_Sync_API_test.hpp **** 
 1250              		.loc 1 145 33 is_stmt 0 discriminator 3
 1251 04bc 13050001 		li	a0,16
 1252 04c0 97000000 		call	_Znwm@plt
 1252      E7800000 
 1253              	.LVL132:
 1254              	.LEHE2:
 1255 04c8 93040500 		mv	s1,a0
 1256              	.LVL133:
 1257 04cc 93050000 		li	a1,0
 1258              	.LEHB3:
 1259 04d0 97000000 		call	_ZN9SemaphoreC1Ej@plt
 1259      E7800000 
 1260              	.LVL134:
 1261              	.LEHE3:
 145:test/../test/ConsumerProducer_CPP_Sync_API_test.hpp **** 
 1262              		.loc 1 145 16 discriminator 3
 1263 04d8 17070000 		lla	a4,.LANCHOR0
 1263      13070700 
 1264 04e0 23349702 		sd	s1,40(a4)
 147:test/../test/ConsumerProducer_CPP_Sync_API_test.hpp ****     Thread* consumerThread;
 1265              		.loc 1 147 5 is_stmt 1 discriminator 3
 1266              	.LVL135:
 147:test/../test/ConsumerProducer_CPP_Sync_API_test.hpp ****     Thread* consumerThread;
 1267              		.loc 1 147 13 is_stmt 0 discriminator 3
 1268 04e4 93173900 		slli	a5,s2,3
 1269 04e8 9387F700 		addi	a5,a5,15
GAS LISTING /tmp/ccz7Twe1.s 			page 33


 1270 04ec 93F707FF 		andi	a5,a5,-16
 1271 04f0 3301F140 		sub	sp,sp,a5
 1272 04f4 93090100 		mv	s3,sp
 1273              	.LVL136:
 148:test/../test/ConsumerProducer_CPP_Sync_API_test.hpp **** 
 1274              		.loc 1 148 5 is_stmt 1 discriminator 3
 150:test/../test/ConsumerProducer_CPP_Sync_API_test.hpp **** 
 1275              		.loc 1 150 5 discriminator 3
 150:test/../test/ConsumerProducer_CPP_Sync_API_test.hpp **** 
 1276              		.loc 1 150 39 is_stmt 0 discriminator 3
 1277 04f8 9B061900 		addiw	a3,s2,1
 1278              	.LVL137:
 150:test/../test/ConsumerProducer_CPP_Sync_API_test.hpp **** 
 1279              		.loc 1 150 24 discriminator 3
 1280 04fc 93971600 		slli	a5,a3,1
 1281 0500 B387D700 		add	a5,a5,a3
 1282 0504 93973700 		slli	a5,a5,3
 1283 0508 9387F700 		addi	a5,a5,15
 1284 050c 93F707FF 		andi	a5,a5,-16
 1285 0510 3301F140 		sub	sp,sp,a5
 1286              	.LVL138:
 1287 0514 130A0100 		mv	s4,sp
 1288              	.LVL139:
 152:test/../test/ConsumerProducer_CPP_Sync_API_test.hpp ****     data[threadNum].buffer = buffer;
 1289              		.loc 1 152 5 is_stmt 1 discriminator 3
 152:test/../test/ConsumerProducer_CPP_Sync_API_test.hpp ****     data[threadNum].buffer = buffer;
 1290              		.loc 1 152 24 is_stmt 0 discriminator 3
 1291 0518 93141900 		slli	s1,s2,1
 1292 051c B3872401 		add	a5,s1,s2
 1293 0520 93973700 		slli	a5,a5,3
 1294 0524 B307FA00 		add	a5,s4,a5
 1295 0528 23A02701 		sw	s2,0(a5)
 153:test/../test/ConsumerProducer_CPP_Sync_API_test.hpp ****     data[threadNum].wait = waitForAll;
 1296              		.loc 1 153 5 is_stmt 1 discriminator 3
 153:test/../test/ConsumerProducer_CPP_Sync_API_test.hpp ****     data[threadNum].wait = waitForAll;
 1297              		.loc 1 153 28 is_stmt 0 discriminator 3
 1298 052c 23B45701 		sd	s5,8(a5)
 154:test/../test/ConsumerProducer_CPP_Sync_API_test.hpp ****     consumerThread = new Consumer(data+threadNum);
 1299              		.loc 1 154 5 is_stmt 1 discriminator 3
 154:test/../test/ConsumerProducer_CPP_Sync_API_test.hpp ****     consumerThread = new Consumer(data+threadNum);
 1300              		.loc 1 154 26 is_stmt 0 discriminator 3
 1301 0530 03378702 		ld	a4,40(a4)
 1302 0534 23B8E700 		sd	a4,16(a5)
 155:test/../test/ConsumerProducer_CPP_Sync_API_test.hpp ****     consumerThread->start();
 1303              		.loc 1 155 5 is_stmt 1 discriminator 3
 155:test/../test/ConsumerProducer_CPP_Sync_API_test.hpp ****     consumerThread->start();
 1304              		.loc 1 155 49 is_stmt 0 discriminator 3
 1305 0538 13058001 		li	a0,24
 1306              	.LEHB4:
 1307 053c 97000000 		call	_Znwm@plt
 1307      E7800000 
 1308              	.LVL140:
 1309              	.LEHE4:
 1310 0544 130B0500 		mv	s6,a0
 155:test/../test/ConsumerProducer_CPP_Sync_API_test.hpp ****     consumerThread->start();
 1311              		.loc 1 155 39 discriminator 3
 1312 0548 B3842401 		add	s1,s1,s2
GAS LISTING /tmp/ccz7Twe1.s 			page 34


 1313 054c 93943400 		slli	s1,s1,3
 155:test/../test/ConsumerProducer_CPP_Sync_API_test.hpp ****     consumerThread->start();
 1314              		.loc 1 155 49 discriminator 3
 1315 0550 B3049A00 		add	s1,s4,s1
 1316              	.LVL141:
 1317              	.LEHB5:
 1318              	.LBB52:
 1319              	.LBB53:
  84:test/../test/ConsumerProducer_CPP_Sync_API_test.hpp **** 
 1320              		.loc 1 84 48 discriminator 3
 1321 0554 97000000 		call	_ZN6ThreadC2Ev@plt
 1321      E7800000 
 1322              	.LVL142:
 1323              	.LEHE5:
  84:test/../test/ConsumerProducer_CPP_Sync_API_test.hpp **** 
 1324              		.loc 1 84 48
 1325 055c 97070000 		lla	a5,_ZTV8Consumer+16
 1325      93870700 
 1326 0564 2330FB00 		sd	a5,0(s6)
 1327 0568 23389B00 		sd	s1,16(s6)
 1328              	.LVL143:
 1329              	.LBE53:
 1330              	.LBE52:
 156:test/../test/ConsumerProducer_CPP_Sync_API_test.hpp **** 
 1331              		.loc 1 156 5 is_stmt 1
 156:test/../test/ConsumerProducer_CPP_Sync_API_test.hpp **** 
 1332              		.loc 1 156 26 is_stmt 0
 1333 056c 13050B00 		mv	a0,s6
 1334              	.LEHB6:
 1335 0570 97000000 		call	_ZN6Thread5startEv@plt
 1335      E7800000 
 1336              	.LVL144:
 1337              	.LBB54:
 158:test/../test/ConsumerProducer_CPP_Sync_API_test.hpp ****         data[i].id = i;
 1338              		.loc 1 158 14
 1339 0578 93040000 		li	s1,0
 1340 057c 6F008003 		j	.L65
 1341              	.LVL145:
 1342              	.L89:
 1343              	.LBB55:
 1344              	.LBB56:
  57:test/../test/ConsumerProducer_CPP_Sync_API_test.hpp **** 
 1345              		.loc 1 57 48
 1346 0580 97070000 		lla	a5,_ZTV8Producer+16
 1346      93870700 
 1347 0588 23B0FC00 		sd	a5,0(s9)
 1348 058c 23B88C01 		sd	s8,16(s9)
 1349              	.LVL146:
 1350              	.LBE56:
 1351              	.LBE55:
 164:test/../test/ConsumerProducer_CPP_Sync_API_test.hpp ****         } else {
 1352              		.loc 1 164 24
 1353 0590 93973400 		slli	a5,s1,3
 1354 0594 B387F900 		add	a5,s3,a5
 1355 0598 23B09701 		sd	s9,0(a5)
 1356              	.L64:
 169:test/../test/ConsumerProducer_CPP_Sync_API_test.hpp ****     }
GAS LISTING /tmp/ccz7Twe1.s 			page 35


 1357              		.loc 1 169 9 is_stmt 1
 169:test/../test/ConsumerProducer_CPP_Sync_API_test.hpp ****     }
 1358              		.loc 1 169 18 is_stmt 0
 1359 059c 93973400 		slli	a5,s1,3
 1360 05a0 B387F900 		add	a5,s3,a5
 169:test/../test/ConsumerProducer_CPP_Sync_API_test.hpp ****     }
 1361              		.loc 1 169 26
 1362 05a4 03B50700 		ld	a0,0(a5)
 1363 05a8 97000000 		call	_ZN6Thread5startEv@plt
 1363      E7800000 
 1364              	.LVL147:
 158:test/../test/ConsumerProducer_CPP_Sync_API_test.hpp ****         data[i].id = i;
 1365              		.loc 1 158 5 is_stmt 1
 1366 05b0 9B841400 		addiw	s1,s1,1
 1367              	.LVL148:
 1368              	.L65:
 158:test/../test/ConsumerProducer_CPP_Sync_API_test.hpp ****         data[i].id = i;
 1369              		.loc 1 158 23 discriminator 1
 1370 05b4 63D0240B 		bge	s1,s2,.L62
 159:test/../test/ConsumerProducer_CPP_Sync_API_test.hpp ****         data[i].buffer = buffer;
 1371              		.loc 1 159 9
 159:test/../test/ConsumerProducer_CPP_Sync_API_test.hpp ****         data[i].buffer = buffer;
 1372              		.loc 1 159 20 is_stmt 0
 1373 05b8 93971400 		slli	a5,s1,1
 1374 05bc B3879700 		add	a5,a5,s1
 1375 05c0 93973700 		slli	a5,a5,3
 1376 05c4 B307FA00 		add	a5,s4,a5
 1377 05c8 23A09700 		sw	s1,0(a5)
 160:test/../test/ConsumerProducer_CPP_Sync_API_test.hpp ****         data[i].wait = waitForAll;
 1378              		.loc 1 160 9 is_stmt 1
 160:test/../test/ConsumerProducer_CPP_Sync_API_test.hpp ****         data[i].wait = waitForAll;
 1379              		.loc 1 160 24 is_stmt 0
 1380 05cc 23B45701 		sd	s5,8(a5)
 161:test/../test/ConsumerProducer_CPP_Sync_API_test.hpp **** 
 1381              		.loc 1 161 9 is_stmt 1
 161:test/../test/ConsumerProducer_CPP_Sync_API_test.hpp **** 
 1382              		.loc 1 161 22 is_stmt 0
 1383 05d0 17070000 		ld	a4,.LANCHOR0+40
 1383      03370700 
 1384 05d8 23B8E700 		sd	a4,16(a5)
 163:test/../test/ConsumerProducer_CPP_Sync_API_test.hpp ****             threads[i] = new Producer(data+i);
 1385              		.loc 1 163 9 is_stmt 1
 1386 05dc 63589002 		blez	s1,.L63
 164:test/../test/ConsumerProducer_CPP_Sync_API_test.hpp ****         } else {
 1387              		.loc 1 164 13
 164:test/../test/ConsumerProducer_CPP_Sync_API_test.hpp ****         } else {
 1388              		.loc 1 164 45 is_stmt 0
 1389 05e0 13058001 		li	a0,24
 1390 05e4 97000000 		call	_Znwm@plt
 1390      E7800000 
 1391              	.LVL149:
 1392              	.LEHE6:
 1393 05ec 930C0500 		mv	s9,a0
 164:test/../test/ConsumerProducer_CPP_Sync_API_test.hpp ****         } else {
 1394              		.loc 1 164 43
 1395 05f0 139C1400 		slli	s8,s1,1
 1396 05f4 330C9C00 		add	s8,s8,s1
GAS LISTING /tmp/ccz7Twe1.s 			page 36


 1397 05f8 131C3C00 		slli	s8,s8,3
 164:test/../test/ConsumerProducer_CPP_Sync_API_test.hpp ****         } else {
 1398              		.loc 1 164 45
 1399 05fc 330C8A01 		add	s8,s4,s8
 1400              	.LVL150:
 1401              	.LEHB7:
 1402              	.LBB58:
 1403              	.LBB57:
  57:test/../test/ConsumerProducer_CPP_Sync_API_test.hpp **** 
 1404              		.loc 1 57 48
 1405 0600 97000000 		call	_ZN6ThreadC2Ev@plt
 1405      E7800000 
 1406              	.LVL151:
 1407              	.LEHE7:
 1408 0608 6FF09FF7 		j	.L89
 1409              	.LVL152:
 1410              	.L63:
 1411              	.LBE57:
 1412              	.LBE58:
 166:test/../test/ConsumerProducer_CPP_Sync_API_test.hpp ****         }
 1413              		.loc 1 166 13 is_stmt 1
 166:test/../test/ConsumerProducer_CPP_Sync_API_test.hpp ****         }
 1414              		.loc 1 166 53 is_stmt 0
 1415 060c 13058001 		li	a0,24
 1416              	.LEHB8:
 1417 0610 97000000 		call	_Znwm@plt
 1417      E7800000 
 1418              	.LVL153:
 1419              	.LEHE8:
 1420 0618 930C0500 		mv	s9,a0
 166:test/../test/ConsumerProducer_CPP_Sync_API_test.hpp ****         }
 1421              		.loc 1 166 51
 1422 061c 139C1400 		slli	s8,s1,1
 1423 0620 330C9C00 		add	s8,s8,s1
 1424 0624 131C3C00 		slli	s8,s8,3
 166:test/../test/ConsumerProducer_CPP_Sync_API_test.hpp ****         }
 1425              		.loc 1 166 53
 1426 0628 330C8A01 		add	s8,s4,s8
 1427              	.LVL154:
 1428              	.LEHB9:
 1429              	.LBB59:
 1430              	.LBB60:
  26:test/../test/ConsumerProducer_CPP_Sync_API_test.hpp **** 
 1431              		.loc 1 26 56
 1432 062c 97000000 		call	_ZN6ThreadC2Ev@plt
 1432      E7800000 
 1433              	.LVL155:
 1434              	.LEHE9:
 1435 0634 97070000 		lla	a5,_ZTV16ProducerKeyboard+16
 1435      93870700 
 1436 063c 23B0FC00 		sd	a5,0(s9)
 1437 0640 23B88C01 		sd	s8,16(s9)
 1438              	.LVL156:
 1439              	.LBE60:
 1440              	.LBE59:
 166:test/../test/ConsumerProducer_CPP_Sync_API_test.hpp ****         }
 1441              		.loc 1 166 24
GAS LISTING /tmp/ccz7Twe1.s 			page 37


 1442 0644 93973400 		slli	a5,s1,3
 1443 0648 B387F900 		add	a5,s3,a5
 1444 064c 23B09701 		sd	s9,0(a5)
 1445 0650 6FF0DFF4 		j	.L64
 1446              	.L62:
 1447              	.LBE54:
 172:test/../test/ConsumerProducer_CPP_Sync_API_test.hpp **** 
 1448              		.loc 1 172 5 is_stmt 1
 1449              	.LEHB10:
 172:test/../test/ConsumerProducer_CPP_Sync_API_test.hpp **** 
 1450              		.loc 1 172 21 is_stmt 0
 1451 0654 97000000 		call	_ZN6Thread8dispatchEv@plt
 1451      E7800000 
 1452              	.LVL157:
 1453              	.LBB61:
 174:test/../test/ConsumerProducer_CPP_Sync_API_test.hpp ****         waitForAll->wait();
 1454              		.loc 1 174 14
 1455 065c 93040000 		li	s1,0
 1456              	.LVL158:
 1457              	.L67:
 174:test/../test/ConsumerProducer_CPP_Sync_API_test.hpp ****         waitForAll->wait();
 1458              		.loc 1 174 23 is_stmt 1 discriminator 1
 1459 0660 634E9900 		bgt	s1,s2,.L79
 175:test/../test/ConsumerProducer_CPP_Sync_API_test.hpp ****     }
 1460              		.loc 1 175 9
 175:test/../test/ConsumerProducer_CPP_Sync_API_test.hpp ****     }
 1461              		.loc 1 175 25 is_stmt 0
 1462 0664 17050000 		ld	a0,.LANCHOR0+40
 1462      03350500 
 1463 066c 97000000 		call	_ZN9Semaphore4waitEv@plt
 1463      E7800000 
 1464              	.LVL159:
 174:test/../test/ConsumerProducer_CPP_Sync_API_test.hpp ****         waitForAll->wait();
 1465              		.loc 1 174 5 is_stmt 1
 1466 0674 9B841400 		addiw	s1,s1,1
 1467              	.LVL160:
 1468 0678 6FF09FFE 		j	.L67
 1469              	.LVL161:
 1470              	.L79:
 1471              	.LBE61:
 1472              	.LBB62:
 178:test/../test/ConsumerProducer_CPP_Sync_API_test.hpp ****         delete threads[i];
 1473              		.loc 1 178 14 is_stmt 0
 1474 067c 93040000 		li	s1,0
 1475              	.LVL162:
 1476 0680 6F008000 		j	.L66
 1477              	.LVL163:
 1478              	.L69:
 178:test/../test/ConsumerProducer_CPP_Sync_API_test.hpp ****         delete threads[i];
 1479              		.loc 1 178 5 is_stmt 1 discriminator 2
 1480 0684 9B841400 		addiw	s1,s1,1
 1481              	.LVL164:
 1482              	.L66:
 178:test/../test/ConsumerProducer_CPP_Sync_API_test.hpp ****         delete threads[i];
 1483              		.loc 1 178 23 discriminator 1
 1484 0688 63D22403 		bge	s1,s2,.L68
 179:test/../test/ConsumerProducer_CPP_Sync_API_test.hpp ****     }
GAS LISTING /tmp/ccz7Twe1.s 			page 38


 1485              		.loc 1 179 9
 179:test/../test/ConsumerProducer_CPP_Sync_API_test.hpp ****     }
 1486              		.loc 1 179 25 is_stmt 0
 1487 068c 93973400 		slli	a5,s1,3
 1488 0690 B387F900 		add	a5,s3,a5
 1489 0694 03B50700 		ld	a0,0(a5)
 179:test/../test/ConsumerProducer_CPP_Sync_API_test.hpp ****     }
 1490              		.loc 1 179 26
 1491 0698 E30605FE 		beqz	a0,.L69
 179:test/../test/ConsumerProducer_CPP_Sync_API_test.hpp ****     }
 1492              		.loc 1 179 25 discriminator 1
 1493 069c 83370500 		ld	a5,0(a0)
 1494 06a0 83B78700 		ld	a5,8(a5)
 1495 06a4 E7800700 		jalr	a5
 1496              	.LVL165:
 1497 06a8 6FF0DFFD 		j	.L69
 1498              	.L68:
 1499              	.LBE62:
 181:test/../test/ConsumerProducer_CPP_Sync_API_test.hpp ****     delete waitForAll;
 1500              		.loc 1 181 5 is_stmt 1
 181:test/../test/ConsumerProducer_CPP_Sync_API_test.hpp ****     delete waitForAll;
 1501              		.loc 1 181 26 is_stmt 0
 1502 06ac 630A0B00 		beqz	s6,.L70
 181:test/../test/ConsumerProducer_CPP_Sync_API_test.hpp ****     delete waitForAll;
 1503              		.loc 1 181 12 discriminator 1
 1504 06b0 83370B00 		ld	a5,0(s6)
 1505 06b4 83B78700 		ld	a5,8(a5)
 1506 06b8 13050B00 		mv	a0,s6
 1507 06bc E7800700 		jalr	a5
 1508              	.LVL166:
 1509              	.L70:
 182:test/../test/ConsumerProducer_CPP_Sync_API_test.hpp ****     delete buffer;
 1510              		.loc 1 182 5 is_stmt 1
 182:test/../test/ConsumerProducer_CPP_Sync_API_test.hpp ****     delete buffer;
 1511              		.loc 1 182 12 is_stmt 0
 1512 06c0 17050000 		ld	a0,.LANCHOR0+40
 1512      03350500 
 182:test/../test/ConsumerProducer_CPP_Sync_API_test.hpp ****     delete buffer;
 1513              		.loc 1 182 22
 1514 06c8 63080500 		beqz	a0,.L71
 182:test/../test/ConsumerProducer_CPP_Sync_API_test.hpp ****     delete buffer;
 1515              		.loc 1 182 12 discriminator 1
 1516 06cc 83370500 		ld	a5,0(a0)
 1517 06d0 83B78700 		ld	a5,8(a5)
 1518 06d4 E7800700 		jalr	a5
 1519              	.LVL167:
 1520              	.L71:
 1521              		.loc 1 183 5 is_stmt 1
 1522              		.loc 1 183 18 is_stmt 0
 1523 06d8 638E0A00 		beqz	s5,.L72
 1524              		.loc 1 183 12 discriminator 1
 1525 06dc 13850A00 		mv	a0,s5
 1526 06e0 97000000 		call	_ZN9BufferCPPD1Ev@plt
 1526      E7800000 
 1527              	.LVL168:
 1528 06e8 13850A00 		mv	a0,s5
 1529 06ec 97000000 		call	_ZdlPv@plt
GAS LISTING /tmp/ccz7Twe1.s 			page 39


 1529      E7800000 
 1530              	.LVL169:
 1531              	.LEHE10:
 1532              	.L72:
 1533 06f4 13810B00 		mv	sp,s7
 1534              	.LVL170:
 1535              	.L58:
 184:test/../test/ConsumerProducer_CPP_Sync_API_test.hpp **** 
 185:test/../test/ConsumerProducer_CPP_Sync_API_test.hpp **** }
 1536              		.loc 1 185 1
 1537 06f8 130104F8 		addi	sp,s0,-128
 1538              		.cfi_remember_state
 1539              		.cfi_def_cfa 2, 128
 1540 06fc 83308107 		ld	ra,120(sp)
 1541              		.cfi_restore 1
 1542 0700 03340107 		ld	s0,112(sp)
 1543              		.cfi_restore 8
 1544 0704 83348106 		ld	s1,104(sp)
 1545              		.cfi_restore 9
 1546 0708 03390106 		ld	s2,96(sp)
 1547              		.cfi_restore 18
 1548              	.LVL171:
 1549 070c 83398105 		ld	s3,88(sp)
 1550              		.cfi_restore 19
 1551 0710 033A0105 		ld	s4,80(sp)
 1552              		.cfi_restore 20
 1553 0714 833A8104 		ld	s5,72(sp)
 1554              		.cfi_restore 21
 1555 0718 033B0104 		ld	s6,64(sp)
 1556              		.cfi_restore 22
 1557 071c 833B8103 		ld	s7,56(sp)
 1558              		.cfi_restore 23
 1559 0720 033C0103 		ld	s8,48(sp)
 1560              		.cfi_restore 24
 1561 0724 833C8102 		ld	s9,40(sp)
 1562              		.cfi_restore 25
 1563 0728 13010108 		addi	sp,sp,128
 1564              		.cfi_def_cfa_offset 0
 1565 072c 67800000 		jr	ra
 1566              	.LVL172:
 1567              	.L80:
 1568              		.cfi_restore_state
 1569 0730 93040500 		mv	s1,a0
 1570              	.LVL173:
 143:test/../test/ConsumerProducer_CPP_Sync_API_test.hpp **** 
 1571              		.loc 1 143 40
 1572 0734 13850A00 		mv	a0,s5
 1573 0738 97000000 		call	_ZdlPv@plt
 1573      E7800000 
 1574              	.LVL174:
 1575 0740 13850400 		mv	a0,s1
 1576              	.LEHB11:
 1577 0744 97000000 		call	_Unwind_Resume@plt
 1577      E7800000 
 1578              	.LVL175:
 1579              	.LEHE11:
 1580              	.L81:
GAS LISTING /tmp/ccz7Twe1.s 			page 40


 1581 074c 13090500 		mv	s2,a0
 1582              	.LVL176:
 145:test/../test/ConsumerProducer_CPP_Sync_API_test.hpp **** 
 1583              		.loc 1 145 33
 1584 0750 13850400 		mv	a0,s1
 1585 0754 97000000 		call	_ZdlPv@plt
 1585      E7800000 
 1586              	.LVL177:
 1587 075c 13050900 		mv	a0,s2
 1588              	.LEHB12:
 1589 0760 97000000 		call	_Unwind_Resume@plt
 1589      E7800000 
 1590              	.LVL178:
 1591              	.LEHE12:
 1592              	.L82:
 1593 0768 93040500 		mv	s1,a0
 1594              	.LVL179:
 155:test/../test/ConsumerProducer_CPP_Sync_API_test.hpp ****     consumerThread->start();
 1595              		.loc 1 155 49
 1596 076c 13050B00 		mv	a0,s6
 1597 0770 97000000 		call	_ZdlPv@plt
 1597      E7800000 
 1598              	.LVL180:
 1599 0778 13850400 		mv	a0,s1
 1600              	.LEHB13:
 1601 077c 97000000 		call	_Unwind_Resume@plt
 1601      E7800000 
 1602              	.LVL181:
 1603              	.LEHE13:
 1604              	.L83:
 1605 0784 93040500 		mv	s1,a0
 1606              	.LVL182:
 1607              	.LBB63:
 164:test/../test/ConsumerProducer_CPP_Sync_API_test.hpp ****         } else {
 1608              		.loc 1 164 45
 1609 0788 13850C00 		mv	a0,s9
 1610 078c 97000000 		call	_ZdlPv@plt
 1610      E7800000 
 1611              	.LVL183:
 1612 0794 13850400 		mv	a0,s1
 1613              	.LEHB14:
 1614 0798 97000000 		call	_Unwind_Resume@plt
 1614      E7800000 
 1615              	.LVL184:
 1616              	.LEHE14:
 1617              	.L84:
 1618 07a0 93040500 		mv	s1,a0
 1619              	.LVL185:
 166:test/../test/ConsumerProducer_CPP_Sync_API_test.hpp ****         }
 1620              		.loc 1 166 53
 1621 07a4 13850C00 		mv	a0,s9
 1622 07a8 97000000 		call	_ZdlPv@plt
 1622      E7800000 
 1623              	.LVL186:
 1624 07b0 13850400 		mv	a0,s1
 1625              	.LEHB15:
 1626 07b4 97000000 		call	_Unwind_Resume@plt
GAS LISTING /tmp/ccz7Twe1.s 			page 41


 1626      E7800000 
 1627              	.LVL187:
 1628              	.LEHE15:
 1629              	.LBE63:
 1630              		.cfi_endproc
 1631              	.LFE17:
 1632              		.globl	__gxx_personality_v0
 1633              		.section	.gcc_except_table,"a",@progbits
 1634              	.LLSDA17:
 1635 0000 FF       		.byte	0xff
 1636 0001 FF       		.byte	0xff
 1637 0002 03       		.byte	0x3
 1638 0003 D001     		.byte	0xd0,0x1
 1639 0005 00000000 		.4byte	.LEHB0-.LFB17
 1640 0009 00000000 		.4byte	.LEHE0-.LEHB0
 1641 000d 00000000 		.4byte	0
 1642 0011 00       		.byte	0
 1643 0012 00000000 		.4byte	.LEHB1-.LFB17
 1644 0016 00000000 		.4byte	.LEHE1-.LEHB1
 1645 001a 00000000 		.4byte	.L80-.LFB17
 1646 001e 00       		.byte	0
 1647 001f 00000000 		.4byte	.LEHB2-.LFB17
 1648 0023 00000000 		.4byte	.LEHE2-.LEHB2
 1649 0027 00000000 		.4byte	0
 1650 002b 00       		.byte	0
 1651 002c 00000000 		.4byte	.LEHB3-.LFB17
 1652 0030 00000000 		.4byte	.LEHE3-.LEHB3
 1653 0034 00000000 		.4byte	.L81-.LFB17
 1654 0038 00       		.byte	0
 1655 0039 00000000 		.4byte	.LEHB4-.LFB17
 1656 003d 00000000 		.4byte	.LEHE4-.LEHB4
 1657 0041 00000000 		.4byte	0
 1658 0045 00       		.byte	0
 1659 0046 00000000 		.4byte	.LEHB5-.LFB17
 1660 004a 00000000 		.4byte	.LEHE5-.LEHB5
 1661 004e 00000000 		.4byte	.L82-.LFB17
 1662 0052 00       		.byte	0
 1663 0053 00000000 		.4byte	.LEHB6-.LFB17
 1664 0057 00000000 		.4byte	.LEHE6-.LEHB6
 1665 005b 00000000 		.4byte	0
 1666 005f 00       		.byte	0
 1667 0060 00000000 		.4byte	.LEHB7-.LFB17
 1668 0064 00000000 		.4byte	.LEHE7-.LEHB7
 1669 0068 00000000 		.4byte	.L83-.LFB17
 1670 006c 00       		.byte	0
 1671 006d 00000000 		.4byte	.LEHB8-.LFB17
 1672 0071 00000000 		.4byte	.LEHE8-.LEHB8
 1673 0075 00000000 		.4byte	0
 1674 0079 00       		.byte	0
 1675 007a 00000000 		.4byte	.LEHB9-.LFB17
 1676 007e 00000000 		.4byte	.LEHE9-.LEHB9
 1677 0082 00000000 		.4byte	.L84-.LFB17
 1678 0086 00       		.byte	0
 1679 0087 00000000 		.4byte	.LEHB10-.LFB17
 1680 008b 00000000 		.4byte	.LEHE10-.LEHB10
 1681 008f 00000000 		.4byte	0
 1682 0093 00       		.byte	0
GAS LISTING /tmp/ccz7Twe1.s 			page 42


 1683 0094 00000000 		.4byte	.LEHB11-.LFB17
 1684 0098 00000000 		.4byte	.LEHE11-.LEHB11
 1685 009c 00000000 		.4byte	0
 1686 00a0 00       		.byte	0
 1687 00a1 00000000 		.4byte	.LEHB12-.LFB17
 1688 00a5 00000000 		.4byte	.LEHE12-.LEHB12
 1689 00a9 00000000 		.4byte	0
 1690 00ad 00       		.byte	0
 1691 00ae 00000000 		.4byte	.LEHB13-.LFB17
 1692 00b2 00000000 		.4byte	.LEHE13-.LEHB13
 1693 00b6 00000000 		.4byte	0
 1694 00ba 00       		.byte	0
 1695 00bb 00000000 		.4byte	.LEHB14-.LFB17
 1696 00bf 00000000 		.4byte	.LEHE14-.LEHB14
 1697 00c3 00000000 		.4byte	0
 1698 00c7 00       		.byte	0
 1699 00c8 00000000 		.4byte	.LEHB15-.LFB17
 1700 00cc 00000000 		.4byte	.LEHE15-.LEHB15
 1701 00d0 00000000 		.4byte	0
 1702 00d4 00       		.byte	0
 1703              		.text
 1705              		.section	.rodata.str1.8
 1706 00e3 00000000 		.align	3
 1706      00
 1707              	.LC7:
 1708 00e8 456D706C 		.string	"Employer started!\n"
 1708      6F796572 
 1708      20737461 
 1708      72746564 
 1708      210A00
 1709 00fb 00000000 		.align	3
 1709      00
 1710              	.LC8:
 1711 0100 456D706C 		.string	"Employer finished!\n"
 1711      6F796572 
 1711      2066696E 
 1711      69736865 
 1711      64210A00 
 1712              		.text
 1713              		.align	2
 1714              		.globl	_Z8employerPv
 1716              	_Z8employerPv:
 1717              	.LFB44:
  47:test/userMain.cpp ****     printString("Employer started!\n");
 1718              		.loc 2 47 25 is_stmt 1
 1719              		.cfi_startproc
 1720              	.LVL188:
 1721 07bc 130101FB 		addi	sp,sp,-80
 1722              		.cfi_def_cfa_offset 80
 1723 07c0 23341104 		sd	ra,72(sp)
 1724 07c4 23308104 		sd	s0,64(sp)
 1725 07c8 233C9102 		sd	s1,56(sp)
 1726              		.cfi_offset 1, -8
 1727              		.cfi_offset 8, -16
 1728              		.cfi_offset 9, -24
 1729 07cc 13040105 		addi	s0,sp,80
 1730              		.cfi_def_cfa 8, 0
GAS LISTING /tmp/ccz7Twe1.s 			page 43


  48:test/userMain.cpp ****    // sem_t userSem = (sem_t)(arg);
 1731              		.loc 2 48 5
  48:test/userMain.cpp ****    // sem_t userSem = (sem_t)(arg);
 1732              		.loc 2 48 16 is_stmt 0
 1733 07d0 17050000 		lla	a0,.LC7
 1733      13050500 
 1734              	.LVL189:
 1735 07d8 97000000 		call	_Z11printStringPKc@plt
 1735      E7800000 
 1736              	.LVL190:
  50:test/userMain.cpp ****     sem_open(&user_sem, 0);
 1737              		.loc 2 50 5 is_stmt 1
  51:test/userMain.cpp ****     sem_open(&mutex, 1);
 1738              		.loc 2 51 5
  51:test/userMain.cpp ****     sem_open(&mutex, 1);
 1739              		.loc 2 51 13 is_stmt 0
 1740 07e0 93050000 		li	a1,0
 1741 07e4 130584FD 		addi	a0,s0,-40
 1742 07e8 97000000 		call	_Z8sem_openPP14SemDescriptionj@plt
 1742      E7800000 
 1743              	.LVL191:
  52:test/userMain.cpp ****     thread_t workers[workerNumber];
 1744              		.loc 2 52 5 is_stmt 1
  52:test/userMain.cpp ****     thread_t workers[workerNumber];
 1745              		.loc 2 52 13 is_stmt 0
 1746 07f0 93051000 		li	a1,1
 1747 07f4 130504FD 		addi	a0,s0,-48
 1748 07f8 97000000 		call	_Z8sem_openPP14SemDescriptionj@plt
 1748      E7800000 
 1749              	.LVL192:
 1750              	.LBB64:
  54:test/userMain.cpp ****         args* a = new args{user_sem, mutex, (char)('A' + i)};
 1751              		.loc 2 54 13
 1752 0800 93040000 		li	s1,0
 1753 0804 6F00C004 		j	.L92
 1754              	.LVL193:
 1755              	.L96:
 1756              	.LBB65:
  55:test/userMain.cpp ****         thread_create_without_start(&workers[i], worker, a);
 1757              		.loc 2 55 9 is_stmt 1
  55:test/userMain.cpp ****         thread_create_without_start(&workers[i], worker, a);
 1758              		.loc 2 55 60 is_stmt 0
 1759 0808 13058001 		li	a0,24
 1760 080c 97000000 		call	_Znwm@plt
 1760      E7800000 
 1761              	.LVL194:
 1762 0814 13060500 		mv	a2,a0
 1763 0818 833784FD 		ld	a5,-40(s0)
 1764 081c 2330F500 		sd	a5,0(a0)
 1765 0820 833704FD 		ld	a5,-48(s0)
 1766 0824 2334F500 		sd	a5,8(a0)
  55:test/userMain.cpp ****         thread_create_without_start(&workers[i], worker, a);
 1767              		.loc 2 55 56
 1768 0828 9B871404 		addiw	a5,s1,65
 1769 082c 2308F500 		sb	a5,16(a0)
 1770              	.LVL195:
  56:test/userMain.cpp ****     }
GAS LISTING /tmp/ccz7Twe1.s 			page 44


 1771              		.loc 2 56 9 is_stmt 1
  56:test/userMain.cpp ****     }
 1772              		.loc 2 56 36 is_stmt 0
 1773 0830 93973400 		slli	a5,s1,3
 1774 0834 97050000 		lla	a1,_Z6workerPv
 1774      93850500 
 1775 083c 130584FB 		addi	a0,s0,-72
 1776              	.LVL196:
 1777 0840 3305F500 		add	a0,a0,a5
 1778 0844 97000000 		call	_Z27thread_create_without_startPP3PCBPFvPvES2_@plt
 1778      E7800000 
 1779              	.LVL197:
 1780              	.LBE65:
  54:test/userMain.cpp ****         args* a = new args{user_sem, mutex, (char)('A' + i)};
 1781              		.loc 2 54 5 is_stmt 1
 1782 084c 9B841400 		addiw	s1,s1,1
 1783              	.LVL198:
 1784              	.L92:
  54:test/userMain.cpp ****         args* a = new args{user_sem, mutex, (char)('A' + i)};
 1785              		.loc 2 54 22 discriminator 1
 1786 0850 93072000 		li	a5,2
 1787 0854 E3DA97FA 		ble	s1,a5,.L96
 1788              	.LBE64:
 1789              	.LBB66:
  58:test/userMain.cpp ****         thread_start(workers[i]);
 1790              		.loc 2 58 13 is_stmt 0
 1791 0858 93040000 		li	s1,0
 1792              	.LVL199:
 1793 085c 6F000002 		j	.L91
 1794              	.LVL200:
 1795              	.L97:
  59:test/userMain.cpp ****     }
 1796              		.loc 2 59 9 is_stmt 1
  59:test/userMain.cpp ****     }
 1797              		.loc 2 59 21 is_stmt 0
 1798 0860 93973400 		slli	a5,s1,3
 1799 0864 130704FE 		addi	a4,s0,-32
 1800 0868 B307F700 		add	a5,a4,a5
 1801 086c 03B587FD 		ld	a0,-40(a5)
 1802 0870 97000000 		call	_Z12thread_startP3PCB@plt
 1802      E7800000 
 1803              	.LVL201:
  58:test/userMain.cpp ****         thread_start(workers[i]);
 1804              		.loc 2 58 5 is_stmt 1
 1805 0878 9B841400 		addiw	s1,s1,1
 1806              	.LVL202:
 1807              	.L91:
  58:test/userMain.cpp ****         thread_start(workers[i]);
 1808              		.loc 2 58 22 discriminator 1
 1809 087c 93072000 		li	a5,2
 1810 0880 E3D097FE 		ble	s1,a5,.L97
 1811              	.LBE66:
  65:test/userMain.cpp ****     thread_join(&workers[1]);
 1812              		.loc 2 65 5
  65:test/userMain.cpp ****     thread_join(&workers[1]);
 1813              		.loc 2 65 16 is_stmt 0
 1814 0884 130584FB 		addi	a0,s0,-72
GAS LISTING /tmp/ccz7Twe1.s 			page 45


 1815 0888 97000000 		call	_Z11thread_joinPP3PCB@plt
 1815      E7800000 
 1816              	.LVL203:
  66:test/userMain.cpp ****     thread_join(&workers[2]);
 1817              		.loc 2 66 5 is_stmt 1
  66:test/userMain.cpp ****     thread_join(&workers[2]);
 1818              		.loc 2 66 16 is_stmt 0
 1819 0890 130504FC 		addi	a0,s0,-64
 1820 0894 97000000 		call	_Z11thread_joinPP3PCB@plt
 1820      E7800000 
 1821              	.LVL204:
  67:test/userMain.cpp ****     putc('\n');
 1822              		.loc 2 67 5 is_stmt 1
  67:test/userMain.cpp ****     putc('\n');
 1823              		.loc 2 67 16 is_stmt 0
 1824 089c 130584FC 		addi	a0,s0,-56
 1825 08a0 97000000 		call	_Z11thread_joinPP3PCB@plt
 1825      E7800000 
 1826              	.LVL205:
  68:test/userMain.cpp ****     printString("Employer finished!\n");
 1827              		.loc 2 68 5 is_stmt 1
  68:test/userMain.cpp ****     printString("Employer finished!\n");
 1828              		.loc 2 68 9 is_stmt 0
 1829 08a8 1305A000 		li	a0,10
 1830 08ac 97000000 		call	_Z4putcc@plt
 1830      E7800000 
 1831              	.LVL206:
  69:test/userMain.cpp ****    // sem_signal(userSem);
 1832              		.loc 2 69 5 is_stmt 1
  69:test/userMain.cpp ****    // sem_signal(userSem);
 1833              		.loc 2 69 16 is_stmt 0
 1834 08b4 17050000 		lla	a0,.LC8
 1834      13050500 
 1835 08bc 97000000 		call	_Z11printStringPKc@plt
 1835      E7800000 
 1836              	.LVL207:
  71:test/userMain.cpp **** 
 1837              		.loc 2 71 1
 1838 08c4 83308104 		ld	ra,72(sp)
 1839              		.cfi_restore 1
 1840 08c8 03340104 		ld	s0,64(sp)
 1841              		.cfi_restore 8
 1842              		.cfi_def_cfa 2, 80
 1843 08cc 83348103 		ld	s1,56(sp)
 1844              		.cfi_restore 9
 1845              	.LVL208:
 1846 08d0 13010105 		addi	sp,sp,80
 1847              		.cfi_def_cfa_offset 0
 1848 08d4 67800000 		jr	ra
 1849              		.cfi_endproc
 1850              	.LFE44:
 1852              		.align	2
 1853              		.globl	_Z8userMainv
 1855              	_Z8userMainv:
 1856              	.LFB53:
 104:test/userMain.cpp **** };
 105:test/userMain.cpp **** 
GAS LISTING /tmp/ccz7Twe1.s 			page 46


 106:test/userMain.cpp **** class EmployerCPP : public Thread{
 107:test/userMain.cpp ****     Thread** workers;
 108:test/userMain.cpp **** public:
 109:test/userMain.cpp ****     EmployerCPP(Thread** work) : Thread(){}
 110:test/userMain.cpp **** 
 111:test/userMain.cpp ****     void run() override{
 112:test/userMain.cpp ****         printString("Employer started!\n");
 113:test/userMain.cpp ****         workers[0]->join();
 114:test/userMain.cpp ****         workers[1]->join();
 115:test/userMain.cpp ****         workers[2]->join();
 116:test/userMain.cpp ****         printString("Employer finished!\n");
 117:test/userMain.cpp ****     }
 118:test/userMain.cpp **** };
 119:test/userMain.cpp **** 
 120:test/userMain.cpp **** 
 121:test/userMain.cpp **** void userMain() {
 1857              		.loc 2 121 17 is_stmt 1
 1858              		.cfi_startproc
 1859              		.cfi_personality 0x9b,DW.ref.__gxx_personality_v0
 1860              		.cfi_lsda 0x1b,.LLSDA53
 1861 08d8 130101FD 		addi	sp,sp,-48
 1862              		.cfi_def_cfa_offset 48
 1863 08dc 23341102 		sd	ra,40(sp)
 1864 08e0 23308102 		sd	s0,32(sp)
 1865 08e4 233C9100 		sd	s1,24(sp)
 1866 08e8 23382101 		sd	s2,16(sp)
 1867 08ec 23343101 		sd	s3,8(sp)
 1868 08f0 23304101 		sd	s4,0(sp)
 1869              		.cfi_offset 1, -8
 1870              		.cfi_offset 8, -16
 1871              		.cfi_offset 9, -24
 1872              		.cfi_offset 18, -32
 1873              		.cfi_offset 19, -40
 1874              		.cfi_offset 20, -48
 1875 08f4 13040103 		addi	s0,sp,48
 1876              		.cfi_def_cfa 8, 0
 122:test/userMain.cpp ****     //Threads_C_API_test(); // zadatak 2., niti C API i sinhrona promena konteksta
 123:test/userMain.cpp ****     //Threads_CPP_API_test(); // zadatak 2., niti CPP API i sinhrona promena konteksta
 124:test/userMain.cpp ****     //producerConsumer_C_API(); // zadatak 3., kompletan C API sa semaforima, sinhrona promena kont
 125:test/userMain.cpp ****     //producerConsumer_CPP_Sync_API(); // zadatak 3., kompletan CPP API sa semaforima, sinhrona pro
 126:test/userMain.cpp **** 
 127:test/userMain.cpp ****     //testSleeping(); // thread_sleep test C API
 128:test/userMain.cpp ****     //ConsumerProducerCPP::testConsumerProducer(); // zadatak 4. CPP API i asinhrona promena kontek
 129:test/userMain.cpp ****    /* sem_t user_sem, mutex;
 130:test/userMain.cpp ****     sem_open(&user_sem, 0);
 131:test/userMain.cpp ****     sem_open(&mutex, 1);
 132:test/userMain.cpp ****     thread_t workers[workerNumber];
 133:test/userMain.cpp ****     for(int i = 0; i < workerNumber; i++){
 134:test/userMain.cpp ****         args* a = new args{user_sem, mutex, (char)('A' + i)};
 135:test/userMain.cpp ****         thread_create(&workers[i], worker, a);
 136:test/userMain.cpp ****     }
 137:test/userMain.cpp ****     thread_join(workers[0]); //workers[0].join(); valjda za cpp
 138:test/userMain.cpp ****     thread_join(workers[1]);
 139:test/userMain.cpp ****     thread_join(workers[2]);
 140:test/userMain.cpp ****     //sem_wait(user_sem);
 141:test/userMain.cpp ****     //sem_wait(user_sem);
 142:test/userMain.cpp ****     //sem_wait(user_sem);
GAS LISTING /tmp/ccz7Twe1.s 			page 47


 143:test/userMain.cpp ****     putc('\n');*/
 144:test/userMain.cpp ****     /*thread_t empl;
 145:test/userMain.cpp ****     //sem_t userSem;
 146:test/userMain.cpp ****     //sem_open(&userSem, 0);
 147:test/userMain.cpp ****     thread_create(&empl, employer, nullptr);
 148:test/userMain.cpp ****    // wait_for_all();
 149:test/userMain.cpp ****     thread_join(empl);
 150:test/userMain.cpp ****     //sem_wait(userSem);
 151:test/userMain.cpp ****     //sem_close(userSem);
 152:test/userMain.cpp ****     putc('\n');*/
 153:test/userMain.cpp ****     //cpp
 154:test/userMain.cpp ****     Semaphore *user = new Semaphore(0);
 1877              		.loc 2 154 5
 1878              		.loc 2 154 38 is_stmt 0
 1879 08f8 13050001 		li	a0,16
 1880              	.LEHB16:
 1881 08fc 97000000 		call	_Znwm@plt
 1881      E7800000 
 1882              	.LVL209:
 1883              	.LEHE16:
 1884 0904 130A0500 		mv	s4,a0
 1885 0908 93050000 		li	a1,0
 1886              	.LEHB17:
 1887 090c 97000000 		call	_ZN9SemaphoreC1Ej@plt
 1887      E7800000 
 1888              	.LVL210:
 1889              	.LEHE17:
 1890              	.LBB67:
 155:test/userMain.cpp ****     //Thread* workers[3];
 156:test/userMain.cpp ****     //Thread* empl = new EmployerCPP(workers);
 157:test/userMain.cpp ****     //empl->start();
 158:test/userMain.cpp **** 
 159:test/userMain.cpp ****     for(int i = 0; i < 3; i++){
 1891              		.loc 2 159 13
 1892 0914 93090000 		li	s3,0
 1893 0918 6F008003 		j	.L100
 1894              	.LVL211:
 1895              	.L107:
 1896              	.LBB68:
 1897              	.LBB69:
 1898              	.LBB70:
  85:test/userMain.cpp **** 
 1899              		.loc 2 85 42
 1900 091c 97070000 		lla	a5,_ZTV9WorkerCPP+16
 1900      93870700 
 1901 0924 23B0F400 		sd	a5,0(s1)
 1902 0928 23B82401 		sd	s2,16(s1)
 1903              	.LVL212:
 1904              	.LBE70:
 1905              	.LBE69:
 160:test/userMain.cpp ****         targs* a = new targs{user, (char)('A' + i)};
 161:test/userMain.cpp ****         workers[i] = new WorkerCPP(a);
 1906              		.loc 2 161 20
 1907 092c 13973900 		slli	a4,s3,3
 1908 0930 97070000 		lla	a5,.LANCHOR0
 1908      93870700 
 1909 0938 B387E700 		add	a5,a5,a4
GAS LISTING /tmp/ccz7Twe1.s 			page 48


 1910 093c 23B49700 		sd	s1,8(a5)
 162:test/userMain.cpp ****         workers[i]->start();
 1911              		.loc 2 162 9 is_stmt 1
 1912              		.loc 2 162 26 is_stmt 0
 1913 0940 13850400 		mv	a0,s1
 1914              	.LEHB18:
 1915 0944 97000000 		call	_ZN6Thread5startEv@plt
 1915      E7800000 
 1916              	.LVL213:
 1917              	.LBE68:
 159:test/userMain.cpp ****         targs* a = new targs{user, (char)('A' + i)};
 1918              		.loc 2 159 5 is_stmt 1
 1919 094c 9B891900 		addiw	s3,s3,1
 1920              	.LVL214:
 1921              	.L100:
 159:test/userMain.cpp ****         targs* a = new targs{user, (char)('A' + i)};
 1922              		.loc 2 159 22 discriminator 2
 1923 0950 93072000 		li	a5,2
 1924 0954 63CE3703 		bgt	s3,a5,.L99
 1925              	.LBB73:
 160:test/userMain.cpp ****         targs* a = new targs{user, (char)('A' + i)};
 1926              		.loc 2 160 9
 160:test/userMain.cpp ****         targs* a = new targs{user, (char)('A' + i)};
 1927              		.loc 2 160 51 is_stmt 0
 1928 0958 13050001 		li	a0,16
 1929 095c 97000000 		call	_Znwm@plt
 1929      E7800000 
 1930              	.LVL215:
 1931 0964 13090500 		mv	s2,a0
 1932 0968 23304501 		sd	s4,0(a0)
 160:test/userMain.cpp ****         targs* a = new targs{user, (char)('A' + i)};
 1933              		.loc 2 160 47
 1934 096c 9B871904 		addiw	a5,s3,65
 1935 0970 2304F500 		sb	a5,8(a0)
 1936              	.LVL216:
 161:test/userMain.cpp ****         workers[i]->start();
 1937              		.loc 2 161 9 is_stmt 1
 161:test/userMain.cpp ****         workers[i]->start();
 1938              		.loc 2 161 37 is_stmt 0
 1939 0974 13058001 		li	a0,24
 1940              	.LVL217:
 1941 0978 97000000 		call	_Znwm@plt
 1941      E7800000 
 1942              	.LVL218:
 1943              	.LEHE18:
 1944 0980 93040500 		mv	s1,a0
 1945              	.LVL219:
 1946              	.LEHB19:
 1947              	.LBB72:
 1948              	.LBB71:
  85:test/userMain.cpp **** 
 1949              		.loc 2 85 42
 1950 0984 97000000 		call	_ZN6ThreadC2Ev@plt
 1950      E7800000 
 1951              	.LVL220:
 1952              	.LEHE19:
 1953 098c 6FF01FF9 		j	.L107
GAS LISTING /tmp/ccz7Twe1.s 			page 49


 1954              	.LVL221:
 1955              	.L99:
 1956              	.LBE71:
 1957              	.LBE72:
 1958              	.LBE73:
 1959              	.LBE67:
 163:test/userMain.cpp ****     }
 164:test/userMain.cpp ****     //empl->join();
 165:test/userMain.cpp ****     /*user->wait();
 166:test/userMain.cpp ****     user->wait();
 167:test/userMain.cpp ****     user->wait();*/
 168:test/userMain.cpp ****     workers[0]->join();
 1960              		.loc 2 168 5 is_stmt 1
 1961              		.loc 2 168 14 is_stmt 0
 1962 0990 97040000 		lla	s1,.LANCHOR0
 1962      93840400 
 1963              		.loc 2 168 21
 1964 0998 03B58400 		ld	a0,8(s1)
 1965              	.LEHB20:
 1966 099c 97000000 		call	_ZN6Thread4joinEv@plt
 1966      E7800000 
 1967              	.LVL222:
 169:test/userMain.cpp ****     workers[1]->join();
 1968              		.loc 2 169 5 is_stmt 1
 1969              		.loc 2 169 21 is_stmt 0
 1970 09a4 03B50401 		ld	a0,16(s1)
 1971 09a8 97000000 		call	_ZN6Thread4joinEv@plt
 1971      E7800000 
 1972              	.LVL223:
 170:test/userMain.cpp ****     workers[2]->join();
 1973              		.loc 2 170 5 is_stmt 1
 1974              		.loc 2 170 21 is_stmt 0
 1975 09b0 03B58401 		ld	a0,24(s1)
 1976 09b4 97000000 		call	_ZN6Thread4joinEv@plt
 1976      E7800000 
 1977              	.LVL224:
 171:test/userMain.cpp ****     putc('\n');
 1978              		.loc 2 171 5 is_stmt 1
 1979              		.loc 2 171 9 is_stmt 0
 1980 09bc 1305A000 		li	a0,10
 1981 09c0 97000000 		call	_Z4putcc@plt
 1981      E7800000 
 1982              	.LVL225:
 1983              	.LEHE20:
 172:test/userMain.cpp **** }...
 1984              		.loc 2 172 1
 1985 09c8 83308102 		ld	ra,40(sp)
 1986              		.cfi_remember_state
 1987              		.cfi_restore 1
 1988 09cc 03340102 		ld	s0,32(sp)
 1989              		.cfi_restore 8
 1990              		.cfi_def_cfa 2, 48
 1991 09d0 83348101 		ld	s1,24(sp)
 1992              		.cfi_restore 9
 1993 09d4 03390101 		ld	s2,16(sp)
 1994              		.cfi_restore 18
 1995 09d8 83398100 		ld	s3,8(sp)
GAS LISTING /tmp/ccz7Twe1.s 			page 50


 1996              		.cfi_restore 19
 1997              	.LVL226:
 1998 09dc 033A0100 		ld	s4,0(sp)
 1999              		.cfi_restore 20
 2000 09e0 13010103 		addi	sp,sp,48
 2001              		.cfi_def_cfa_offset 0
 2002 09e4 67800000 		jr	ra
 2003              	.L103:
 2004              		.cfi_restore_state
 2005 09e8 93040500 		mv	s1,a0
 154:test/userMain.cpp ****     Semaphore *user = new Semaphore(0);
 2006              		.loc 2 154 38
 2007 09ec 13050A00 		mv	a0,s4
 2008 09f0 97000000 		call	_ZdlPv@plt
 2008      E7800000 
 2009              	.LVL227:
 2010 09f8 13850400 		mv	a0,s1
 2011              	.LEHB21:
 2012 09fc 97000000 		call	_Unwind_Resume@plt
 2012      E7800000 
 2013              	.LVL228:
 2014              	.LEHE21:
 2015              	.L104:
 2016 0a04 13090500 		mv	s2,a0
 2017              	.LVL229:
 2018              	.LBB75:
 2019              	.LBB74:
 161:test/userMain.cpp ****         workers[i] = new WorkerCPP(a);
 2020              		.loc 2 161 37
 2021 0a08 13850400 		mv	a0,s1
 2022 0a0c 97000000 		call	_ZdlPv@plt
 2022      E7800000 
 2023              	.LVL230:
 2024 0a14 13050900 		mv	a0,s2
 2025              	.LEHB22:
 2026 0a18 97000000 		call	_Unwind_Resume@plt
 2026      E7800000 
 2027              	.LVL231:
 2028              	.LEHE22:
 2029              	.LBE74:
 2030              	.LBE75:
 2031              		.cfi_endproc
 2032              	.LFE53:
 2033              		.section	.gcc_except_table
 2034              	.LLSDA53:
 2035 00d5 FF       		.byte	0xff
 2036 00d6 FF       		.byte	0xff
 2037 00d7 03       		.byte	0x3
 2038 00d8 5B       		.byte	0x5b
 2039 00d9 00000000 		.4byte	.LEHB16-.LFB53
 2040 00dd 00000000 		.4byte	.LEHE16-.LEHB16
 2041 00e1 00000000 		.4byte	0
 2042 00e5 00       		.byte	0
 2043 00e6 00000000 		.4byte	.LEHB17-.LFB53
 2044 00ea 00000000 		.4byte	.LEHE17-.LEHB17
 2045 00ee 00000000 		.4byte	.L103-.LFB53
 2046 00f2 00       		.byte	0
GAS LISTING /tmp/ccz7Twe1.s 			page 51


 2047 00f3 00000000 		.4byte	.LEHB18-.LFB53
 2048 00f7 00000000 		.4byte	.LEHE18-.LEHB18
 2049 00fb 00000000 		.4byte	0
 2050 00ff 00       		.byte	0
 2051 0100 00000000 		.4byte	.LEHB19-.LFB53
 2052 0104 00000000 		.4byte	.LEHE19-.LEHB19
 2053 0108 00000000 		.4byte	.L104-.LFB53
 2054 010c 00       		.byte	0
 2055 010d 00000000 		.4byte	.LEHB20-.LFB53
 2056 0111 00000000 		.4byte	.LEHE20-.LEHB20
 2057 0115 00000000 		.4byte	0
 2058 0119 00       		.byte	0
 2059 011a 00000000 		.4byte	.LEHB21-.LFB53
 2060 011e 00000000 		.4byte	.LEHE21-.LEHB21
 2061 0122 00000000 		.4byte	0
 2062 0126 00       		.byte	0
 2063 0127 00000000 		.4byte	.LEHB22-.LFB53
 2064 012b 00000000 		.4byte	.LEHE22-.LEHB22
 2065 012f 00000000 		.4byte	0
 2066 0133 00       		.byte	0
 2067              		.text
 2069              		.weak	_ZTV16ProducerKeyboard
 2070              		.section	.data.rel.ro.local._ZTV16ProducerKeyboard,"awG",@progbits,_ZTV16ProducerKeyboard,comdat
 2071              		.align	3
 2074              	_ZTV16ProducerKeyboard:
 2075 0000 00000000 		.dword	0
 2075      00000000 
 2076 0008 00000000 		.dword	0
 2076      00000000 
 2077 0010 00000000 		.dword	_ZN16ProducerKeyboardD1Ev
 2077      00000000 
 2078 0018 00000000 		.dword	_ZN16ProducerKeyboardD0Ev
 2078      00000000 
 2079 0020 00000000 		.dword	_ZN16ProducerKeyboard3runEv
 2079      00000000 
 2080              		.weak	_ZTV8Producer
 2081              		.section	.data.rel.ro.local._ZTV8Producer,"awG",@progbits,_ZTV8Producer,comdat
 2082              		.align	3
 2085              	_ZTV8Producer:
 2086 0000 00000000 		.dword	0
 2086      00000000 
 2087 0008 00000000 		.dword	0
 2087      00000000 
 2088 0010 00000000 		.dword	_ZN8ProducerD1Ev
 2088      00000000 
 2089 0018 00000000 		.dword	_ZN8ProducerD0Ev
 2089      00000000 
 2090 0020 00000000 		.dword	_ZN8Producer3runEv
 2090      00000000 
 2091              		.weak	_ZTV8Consumer
 2092              		.section	.data.rel.ro.local._ZTV8Consumer,"awG",@progbits,_ZTV8Consumer,comdat
 2093              		.align	3
 2096              	_ZTV8Consumer:
 2097 0000 00000000 		.dword	0
 2097      00000000 
 2098 0008 00000000 		.dword	0
 2098      00000000 
GAS LISTING /tmp/ccz7Twe1.s 			page 52


 2099 0010 00000000 		.dword	_ZN8ConsumerD1Ev
 2099      00000000 
 2100 0018 00000000 		.dword	_ZN8ConsumerD0Ev
 2100      00000000 
 2101 0020 00000000 		.dword	_ZN8Consumer3runEv
 2101      00000000 
 2102              		.weak	_ZTV9WorkerCPP
 2103              		.section	.data.rel.ro.local._ZTV9WorkerCPP,"awG",@progbits,_ZTV9WorkerCPP,comdat
 2104              		.align	3
 2107              	_ZTV9WorkerCPP:
 2108 0000 00000000 		.dword	0
 2108      00000000 
 2109 0008 00000000 		.dword	0
 2109      00000000 
 2110 0010 00000000 		.dword	_ZN9WorkerCPPD1Ev
 2110      00000000 
 2111 0018 00000000 		.dword	_ZN9WorkerCPPD0Ev
 2111      00000000 
 2112 0020 00000000 		.dword	_ZN9WorkerCPP3runEv
 2112      00000000 
 2113              		.globl	workers
 2114              		.globl	testCnt
 2115              		.globl	threadEnd
 2116              		.globl	waitForAll
 2117              		.bss
 2118              		.align	3
 2119              		.set	.LANCHOR0,. + 0
 2122              	testCnt:
 2123 0000 00000000 		.zero	4
 2124 0004 00000000 		.zero	4
 2127              	workers:
 2128 0008 00000000 		.zero	24
 2128      00000000 
 2128      00000000 
 2128      00000000 
 2128      00000000 
 2131              	threadEnd:
 2132 0020 00000000 		.zero	4
 2133 0024 00000000 		.zero	4
 2136              	waitForAll:
 2137 0028 00000000 		.zero	8
 2137      00000000 
 2138              		.text
 2139              	.Letext0:
 2140              		.file 3 "test/../test/../h/../lib/hw.h"
 2141              		.file 4 "test/../test/../h/syscall_c.h"
 2142              		.file 5 "test/../h/PCB.hpp"
 2143              		.file 6 "test/../test/../h/syscall_cpp.hpp"
 2144              		.file 7 "test/../test/buffer_CPP_API.hpp"
 2145              		.file 8 "test/../test/printing.hpp"
 8472              		.align	3
 8475              	DW.ref.__gxx_personality_v0:
 8476 0000 00000000 		.dword	__gxx_personality_v0
 8476      00000000 
 8477              		.ident	"GCC: (Ubuntu 9.4.0-1ubuntu1~20.04) 9.4.0"
 8478              		.section	.note.GNU-stack,"",@progbits
GAS LISTING /tmp/ccz7Twe1.s 			page 53

